ARM GAS  C:\Users\MANISH~1\AppData\Local\Temp\cc31JF4v.s 			page 1


   1              		.cpu cortex-m0
   2              		.fpu softvfp
   3              		.eabi_attribute 20, 1
   4              		.eabi_attribute 21, 1
   5              		.eabi_attribute 23, 3
   6              		.eabi_attribute 24, 1
   7              		.eabi_attribute 25, 1
   8              		.eabi_attribute 26, 1
   9              		.eabi_attribute 30, 6
  10              		.eabi_attribute 34, 0
  11              		.eabi_attribute 18, 4
  12              		.code	16
  13              		.file	"BLE_tps.c"
  14              		.text
  15              	.Ltext0:
  16              		.cfi_sections	.debug_frame
  17              		.bss
  18              		.align	2
  19              	CyBle_TpsApplCallback:
  20 0000 00000000 		.space	4
  21              		.comm	cyBle_tpsc,6,4
  22              		.align	1
  23              	cyBle_tpscReqHandle:
  24 0004 0000     		.space	2
  25 0006 0000     		.section	.text.CyBle_TpsInit,"ax",%progbits
  26              		.align	2
  27              		.global	CyBle_TpsInit
  28              		.code	16
  29              		.thumb_func
  30              		.type	CyBle_TpsInit, %function
  31              	CyBle_TpsInit:
  32              	.LFB2:
  33              		.file 1 ".\\Generated_Source\\PSoC4\\BLE_tps.c"
   1:.\Generated_Source\PSoC4/BLE_tps.c **** /*******************************************************************************
   2:.\Generated_Source\PSoC4/BLE_tps.c **** File Name: CYBLE_tps.c
   3:.\Generated_Source\PSoC4/BLE_tps.c **** Version 1.20
   4:.\Generated_Source\PSoC4/BLE_tps.c **** 
   5:.\Generated_Source\PSoC4/BLE_tps.c **** Description:
   6:.\Generated_Source\PSoC4/BLE_tps.c ****  This file contains the source code for the Tx Power Service of the BLE
   7:.\Generated_Source\PSoC4/BLE_tps.c ****  Component.
   8:.\Generated_Source\PSoC4/BLE_tps.c **** 
   9:.\Generated_Source\PSoC4/BLE_tps.c **** ********************************************************************************
  10:.\Generated_Source\PSoC4/BLE_tps.c **** Copyright 2014-2015, Cypress Semiconductor Corporation.  All rights reserved.
  11:.\Generated_Source\PSoC4/BLE_tps.c **** You may use this file only in accordance with the license, terms, conditions,
  12:.\Generated_Source\PSoC4/BLE_tps.c **** disclaimers, and limitations in the end user license agreement accompanying
  13:.\Generated_Source\PSoC4/BLE_tps.c **** the software package with which this file was provided.
  14:.\Generated_Source\PSoC4/BLE_tps.c **** *******************************************************************************/
  15:.\Generated_Source\PSoC4/BLE_tps.c **** 
  16:.\Generated_Source\PSoC4/BLE_tps.c **** 
  17:.\Generated_Source\PSoC4/BLE_tps.c **** #include "BLE_eventHandler.h"
  18:.\Generated_Source\PSoC4/BLE_tps.c **** 
  19:.\Generated_Source\PSoC4/BLE_tps.c **** 
  20:.\Generated_Source\PSoC4/BLE_tps.c **** static CYBLE_CALLBACK_T CyBle_TpsApplCallback = NULL;
  21:.\Generated_Source\PSoC4/BLE_tps.c **** 
  22:.\Generated_Source\PSoC4/BLE_tps.c **** #ifdef CYBLE_TPS_SERVER
  23:.\Generated_Source\PSoC4/BLE_tps.c **** 
  24:.\Generated_Source\PSoC4/BLE_tps.c **** 
ARM GAS  C:\Users\MANISH~1\AppData\Local\Temp\cc31JF4v.s 			page 2


  25:.\Generated_Source\PSoC4/BLE_tps.c ****     
  26:.\Generated_Source\PSoC4/BLE_tps.c **** #endif /* CYBLE_TPS_SERVER */
  27:.\Generated_Source\PSoC4/BLE_tps.c **** 
  28:.\Generated_Source\PSoC4/BLE_tps.c **** 
  29:.\Generated_Source\PSoC4/BLE_tps.c **** #ifdef CYBLE_TPS_CLIENT
  30:.\Generated_Source\PSoC4/BLE_tps.c ****     
  31:.\Generated_Source\PSoC4/BLE_tps.c **** CYBLE_TPSC_T cyBle_tpsc;
  32:.\Generated_Source\PSoC4/BLE_tps.c **** 
  33:.\Generated_Source\PSoC4/BLE_tps.c **** /* Internal storage for last request handle to check response */
  34:.\Generated_Source\PSoC4/BLE_tps.c **** static CYBLE_GATT_DB_ATTR_HANDLE_T cyBle_tpscReqHandle;
  35:.\Generated_Source\PSoC4/BLE_tps.c **** 
  36:.\Generated_Source\PSoC4/BLE_tps.c **** #endif /* CYBLE_TPS_CLIENT */
  37:.\Generated_Source\PSoC4/BLE_tps.c **** 
  38:.\Generated_Source\PSoC4/BLE_tps.c **** /******************************************************************************
  39:.\Generated_Source\PSoC4/BLE_tps.c **** ##Function Name: CyBle_TpsInit
  40:.\Generated_Source\PSoC4/BLE_tps.c **** *******************************************************************************
  41:.\Generated_Source\PSoC4/BLE_tps.c **** 
  42:.\Generated_Source\PSoC4/BLE_tps.c **** Summary:
  43:.\Generated_Source\PSoC4/BLE_tps.c ****  This function initializes the Tx Power Service.
  44:.\Generated_Source\PSoC4/BLE_tps.c **** 
  45:.\Generated_Source\PSoC4/BLE_tps.c **** Parameters: 
  46:.\Generated_Source\PSoC4/BLE_tps.c ****  None
  47:.\Generated_Source\PSoC4/BLE_tps.c **** 
  48:.\Generated_Source\PSoC4/BLE_tps.c **** Return:
  49:.\Generated_Source\PSoC4/BLE_tps.c ****  None
  50:.\Generated_Source\PSoC4/BLE_tps.c **** 
  51:.\Generated_Source\PSoC4/BLE_tps.c **** ******************************************************************************/
  52:.\Generated_Source\PSoC4/BLE_tps.c **** void CyBle_TpsInit(void)
  53:.\Generated_Source\PSoC4/BLE_tps.c **** {
  34              		.loc 1 53 0
  35              		.cfi_startproc
  36 0000 80B5     		push	{r7, lr}
  37              		.cfi_def_cfa_offset 8
  38              		.cfi_offset 7, -8
  39              		.cfi_offset 14, -4
  40 0002 00AF     		add	r7, sp, #0
  41              		.cfi_def_cfa_register 7
  54:.\Generated_Source\PSoC4/BLE_tps.c **** 
  55:.\Generated_Source\PSoC4/BLE_tps.c **** #ifdef CYBLE_TPS_CLIENT
  56:.\Generated_Source\PSoC4/BLE_tps.c **** 
  57:.\Generated_Source\PSoC4/BLE_tps.c ****     (void) memset((void *) &cyBle_tpsc, 0, sizeof(cyBle_tpsc));
  42              		.loc 1 57 0
  43 0004 054B     		ldr	r3, .L2
  44 0006 181C     		mov	r0, r3
  45 0008 0021     		mov	r1, #0
  46 000a 0622     		mov	r2, #6
  47 000c FFF7FEFF 		bl	memset
  58:.\Generated_Source\PSoC4/BLE_tps.c ****     cyBle_tpscReqHandle = CYBLE_GATT_INVALID_ATTR_HANDLE_VALUE;
  48              		.loc 1 58 0
  49 0010 034B     		ldr	r3, .L2+4
  50 0012 0022     		mov	r2, #0
  51 0014 1A80     		strh	r2, [r3]
  59:.\Generated_Source\PSoC4/BLE_tps.c ****     
  60:.\Generated_Source\PSoC4/BLE_tps.c **** #endif /* CYBLE_TPS_CLIENT */
  61:.\Generated_Source\PSoC4/BLE_tps.c **** }
  52              		.loc 1 61 0
  53 0016 BD46     		mov	sp, r7
ARM GAS  C:\Users\MANISH~1\AppData\Local\Temp\cc31JF4v.s 			page 3


  54              		@ sp needed
  55 0018 80BD     		pop	{r7, pc}
  56              	.L3:
  57 001a C046     		.align	2
  58              	.L2:
  59 001c 00000000 		.word	cyBle_tpsc
  60 0020 04000000 		.word	cyBle_tpscReqHandle
  61              		.cfi_endproc
  62              	.LFE2:
  63              		.size	CyBle_TpsInit, .-CyBle_TpsInit
  64              		.section	.text.CyBle_TpsRegisterAttrCallback,"ax",%progbits
  65              		.align	2
  66              		.global	CyBle_TpsRegisterAttrCallback
  67              		.code	16
  68              		.thumb_func
  69              		.type	CyBle_TpsRegisterAttrCallback, %function
  70              	CyBle_TpsRegisterAttrCallback:
  71              	.LFB3:
  62:.\Generated_Source\PSoC4/BLE_tps.c **** 
  63:.\Generated_Source\PSoC4/BLE_tps.c **** 
  64:.\Generated_Source\PSoC4/BLE_tps.c **** /******************************************************************************
  65:.\Generated_Source\PSoC4/BLE_tps.c **** ##Function Name: CyBle_TpsRegisterAttrCallback
  66:.\Generated_Source\PSoC4/BLE_tps.c **** *******************************************************************************
  67:.\Generated_Source\PSoC4/BLE_tps.c **** 
  68:.\Generated_Source\PSoC4/BLE_tps.c **** Summary:
  69:.\Generated_Source\PSoC4/BLE_tps.c ****  Registers a callback function for service specific attribute operations.
  70:.\Generated_Source\PSoC4/BLE_tps.c **** 
  71:.\Generated_Source\PSoC4/BLE_tps.c **** Parameters:
  72:.\Generated_Source\PSoC4/BLE_tps.c ****  callbackFunc:  An application layer event callback function to receive 
  73:.\Generated_Source\PSoC4/BLE_tps.c ****                     events from the BLE Component. The definition of 
  74:.\Generated_Source\PSoC4/BLE_tps.c ****                     CYBLE_CALLBACK_T for TPS is,
  75:.\Generated_Source\PSoC4/BLE_tps.c ****             
  76:.\Generated_Source\PSoC4/BLE_tps.c ****                     typedef void (* CYBLE_CALLBACK_T) (uint32 eventCode, 
  77:.\Generated_Source\PSoC4/BLE_tps.c ****                                                       void *eventParam)
  78:.\Generated_Source\PSoC4/BLE_tps.c **** 
  79:.\Generated_Source\PSoC4/BLE_tps.c ****                     * eventCode indicates the event that triggered this 
  80:.\Generated_Source\PSoC4/BLE_tps.c ****                       callback.
  81:.\Generated_Source\PSoC4/BLE_tps.c ****                     * eventParam contains the parameters corresponding to the 
  82:.\Generated_Source\PSoC4/BLE_tps.c ****                       current event.
  83:.\Generated_Source\PSoC4/BLE_tps.c **** Return:
  84:.\Generated_Source\PSoC4/BLE_tps.c ****  None
  85:.\Generated_Source\PSoC4/BLE_tps.c **** 
  86:.\Generated_Source\PSoC4/BLE_tps.c **** Side Effects:
  87:.\Generated_Source\PSoC4/BLE_tps.c ****  The *eventParams in the callback function should not be used by the 
  88:.\Generated_Source\PSoC4/BLE_tps.c ****  application once the callback function execution is finished. Otherwise this
  89:.\Generated_Source\PSoC4/BLE_tps.c ****  data may become corrupted.
  90:.\Generated_Source\PSoC4/BLE_tps.c **** 
  91:.\Generated_Source\PSoC4/BLE_tps.c **** ******************************************************************************/
  92:.\Generated_Source\PSoC4/BLE_tps.c **** void CyBle_TpsRegisterAttrCallback(CYBLE_CALLBACK_T callbackFunc)
  93:.\Generated_Source\PSoC4/BLE_tps.c **** {
  72              		.loc 1 93 0
  73              		.cfi_startproc
  74 0000 80B5     		push	{r7, lr}
  75              		.cfi_def_cfa_offset 8
  76              		.cfi_offset 7, -8
  77              		.cfi_offset 14, -4
  78 0002 82B0     		sub	sp, sp, #8
ARM GAS  C:\Users\MANISH~1\AppData\Local\Temp\cc31JF4v.s 			page 4


  79              		.cfi_def_cfa_offset 16
  80 0004 00AF     		add	r7, sp, #0
  81              		.cfi_def_cfa_register 7
  82 0006 7860     		str	r0, [r7, #4]
  94:.\Generated_Source\PSoC4/BLE_tps.c ****     CyBle_TpsApplCallback = callbackFunc;
  83              		.loc 1 94 0
  84 0008 024B     		ldr	r3, .L5
  85 000a 7A68     		ldr	r2, [r7, #4]
  86 000c 1A60     		str	r2, [r3]
  95:.\Generated_Source\PSoC4/BLE_tps.c **** }
  87              		.loc 1 95 0
  88 000e BD46     		mov	sp, r7
  89 0010 02B0     		add	sp, sp, #8
  90              		@ sp needed
  91 0012 80BD     		pop	{r7, pc}
  92              	.L6:
  93              		.align	2
  94              	.L5:
  95 0014 00000000 		.word	CyBle_TpsApplCallback
  96              		.cfi_endproc
  97              	.LFE3:
  98              		.size	CyBle_TpsRegisterAttrCallback, .-CyBle_TpsRegisterAttrCallback
  99              		.section	.text.CyBle_TpscDiscoverCharacteristicsEventHandler,"ax",%progbits
 100              		.align	2
 101              		.global	CyBle_TpscDiscoverCharacteristicsEventHandler
 102              		.code	16
 103              		.thumb_func
 104              		.type	CyBle_TpscDiscoverCharacteristicsEventHandler, %function
 105              	CyBle_TpscDiscoverCharacteristicsEventHandler:
 106              	.LFB4:
  96:.\Generated_Source\PSoC4/BLE_tps.c **** 
  97:.\Generated_Source\PSoC4/BLE_tps.c **** 
  98:.\Generated_Source\PSoC4/BLE_tps.c **** #ifdef CYBLE_TPS_SERVER
  99:.\Generated_Source\PSoC4/BLE_tps.c **** 
 100:.\Generated_Source\PSoC4/BLE_tps.c **** /******************************************************************************
 101:.\Generated_Source\PSoC4/BLE_tps.c **** ##Function Name: CyBle_TpssWriteEventHandler
 102:.\Generated_Source\PSoC4/BLE_tps.c **** *******************************************************************************
 103:.\Generated_Source\PSoC4/BLE_tps.c **** 
 104:.\Generated_Source\PSoC4/BLE_tps.c **** Summary:
 105:.\Generated_Source\PSoC4/BLE_tps.c ****  Handles the Write Request Event for Tx Power service.
 106:.\Generated_Source\PSoC4/BLE_tps.c **** 
 107:.\Generated_Source\PSoC4/BLE_tps.c **** Parameters:
 108:.\Generated_Source\PSoC4/BLE_tps.c ****  CYBLE_GATTS_WRITE_REQ_PARAM_T * eventParam: The pointer to the data that came
 109:.\Generated_Source\PSoC4/BLE_tps.c ****                                               with a write request for TPS.
 110:.\Generated_Source\PSoC4/BLE_tps.c **** 
 111:.\Generated_Source\PSoC4/BLE_tps.c **** Return:
 112:.\Generated_Source\PSoC4/BLE_tps.c ****  None
 113:.\Generated_Source\PSoC4/BLE_tps.c **** 
 114:.\Generated_Source\PSoC4/BLE_tps.c **** ******************************************************************************/
 115:.\Generated_Source\PSoC4/BLE_tps.c **** CYBLE_GATT_ERR_CODE_T CyBle_TpssWriteEventHandler(CYBLE_GATTS_WRITE_REQ_PARAM_T *eventParam)
 116:.\Generated_Source\PSoC4/BLE_tps.c **** {
 117:.\Generated_Source\PSoC4/BLE_tps.c ****     CYBLE_GATT_ERR_CODE_T gattErr = CYBLE_GATT_ERR_NONE;
 118:.\Generated_Source\PSoC4/BLE_tps.c ****     uint32 event = CYBLE_EVT_TPSS_NOTIFICATION_DISABLED;
 119:.\Generated_Source\PSoC4/BLE_tps.c ****     
 120:.\Generated_Source\PSoC4/BLE_tps.c ****     /* Check event code if it defines write request */
 121:.\Generated_Source\PSoC4/BLE_tps.c ****     if(NULL != CyBle_TpsApplCallback)
 122:.\Generated_Source\PSoC4/BLE_tps.c ****     {
ARM GAS  C:\Users\MANISH~1\AppData\Local\Temp\cc31JF4v.s 			page 5


 123:.\Generated_Source\PSoC4/BLE_tps.c ****         /* Client Characteristic Configuration descriptor write request */
 124:.\Generated_Source\PSoC4/BLE_tps.c ****         if(eventParam->handleValPair.attrHandle == cyBle_tpss.txPowerLevelCccdHandle)
 125:.\Generated_Source\PSoC4/BLE_tps.c ****         {
 126:.\Generated_Source\PSoC4/BLE_tps.c ****             /* Verify that optional notification property is enabled for Tx Power Level characteris
 127:.\Generated_Source\PSoC4/BLE_tps.c ****             if(CYBLE_IS_NOTIFICATION_SUPPORTED(cyBle_tpss.txPowerLevelCharHandle))
 128:.\Generated_Source\PSoC4/BLE_tps.c ****             {
 129:.\Generated_Source\PSoC4/BLE_tps.c ****                 if(CYBLE_IS_NOTIFICATION_ENABLED_IN_PTR(eventParam->handleValPair.value.val))
 130:.\Generated_Source\PSoC4/BLE_tps.c ****                 {
 131:.\Generated_Source\PSoC4/BLE_tps.c ****                     event = CYBLE_EVT_TPSS_NOTIFICATION_ENABLED;
 132:.\Generated_Source\PSoC4/BLE_tps.c ****                 }
 133:.\Generated_Source\PSoC4/BLE_tps.c ****                 
 134:.\Generated_Source\PSoC4/BLE_tps.c ****                 gattErr = CyBle_GattsWriteAttributeValue(&eventParam->handleValPair, 0u, 
 135:.\Generated_Source\PSoC4/BLE_tps.c ****                     &eventParam->connHandle, CYBLE_GATT_DB_PEER_INITIATED);
 136:.\Generated_Source\PSoC4/BLE_tps.c ****                 
 137:.\Generated_Source\PSoC4/BLE_tps.c ****                 if(CYBLE_GATT_ERR_NONE == gattErr)
 138:.\Generated_Source\PSoC4/BLE_tps.c ****                 {
 139:.\Generated_Source\PSoC4/BLE_tps.c ****                     CYBLE_TPS_CHAR_VALUE_T wrReqParam;
 140:.\Generated_Source\PSoC4/BLE_tps.c ****                     
 141:.\Generated_Source\PSoC4/BLE_tps.c ****                     wrReqParam.connHandle = eventParam->connHandle;
 142:.\Generated_Source\PSoC4/BLE_tps.c ****                     wrReqParam.charIndex = CYBLE_TPS_TX_POWER_LEVEL;
 143:.\Generated_Source\PSoC4/BLE_tps.c ****                     wrReqParam.value = NULL;
 144:.\Generated_Source\PSoC4/BLE_tps.c ****                     
 145:.\Generated_Source\PSoC4/BLE_tps.c ****                     CyBle_TpsApplCallback(event, (void *)&wrReqParam);
 146:.\Generated_Source\PSoC4/BLE_tps.c ****                 }
 147:.\Generated_Source\PSoC4/BLE_tps.c ****             }
 148:.\Generated_Source\PSoC4/BLE_tps.c ****             else
 149:.\Generated_Source\PSoC4/BLE_tps.c ****             {
 150:.\Generated_Source\PSoC4/BLE_tps.c ****                 gattErr = CYBLE_GATT_ERR_REQUEST_NOT_SUPPORTED;
 151:.\Generated_Source\PSoC4/BLE_tps.c ****             }
 152:.\Generated_Source\PSoC4/BLE_tps.c ****             /* Indicate that request was handled */
 153:.\Generated_Source\PSoC4/BLE_tps.c ****             cyBle_eventHandlerFlag &= (uint8)~CYBLE_CALLBACK;
 154:.\Generated_Source\PSoC4/BLE_tps.c ****         }
 155:.\Generated_Source\PSoC4/BLE_tps.c ****     }
 156:.\Generated_Source\PSoC4/BLE_tps.c ****     
 157:.\Generated_Source\PSoC4/BLE_tps.c ****     return(gattErr);
 158:.\Generated_Source\PSoC4/BLE_tps.c **** }
 159:.\Generated_Source\PSoC4/BLE_tps.c **** 
 160:.\Generated_Source\PSoC4/BLE_tps.c **** 
 161:.\Generated_Source\PSoC4/BLE_tps.c **** /******************************************************************************
 162:.\Generated_Source\PSoC4/BLE_tps.c **** ##Function Name: CyBle_TpssSetCharacteristicValue
 163:.\Generated_Source\PSoC4/BLE_tps.c **** *******************************************************************************
 164:.\Generated_Source\PSoC4/BLE_tps.c **** 
 165:.\Generated_Source\PSoC4/BLE_tps.c **** Summary:
 166:.\Generated_Source\PSoC4/BLE_tps.c ****  Sets characteristic value of the Tx Power Service, which is identified by 
 167:.\Generated_Source\PSoC4/BLE_tps.c ****  charIndex.
 168:.\Generated_Source\PSoC4/BLE_tps.c **** 
 169:.\Generated_Source\PSoC4/BLE_tps.c **** Parameters:
 170:.\Generated_Source\PSoC4/BLE_tps.c ****  charIndex: The index of the service characteristic.
 171:.\Generated_Source\PSoC4/BLE_tps.c ****  attrSize: The size of the characteristic value attribute.
 172:.\Generated_Source\PSoC4/BLE_tps.c ****  *attrValue: The pointer to the characteristic value data that should be 
 173:.\Generated_Source\PSoC4/BLE_tps.c ****               stored in the GATT database.
 174:.\Generated_Source\PSoC4/BLE_tps.c **** 
 175:.\Generated_Source\PSoC4/BLE_tps.c **** Return:
 176:.\Generated_Source\PSoC4/BLE_tps.c ****  Return value is of type CYBLE_API_RESULT_T.
 177:.\Generated_Source\PSoC4/BLE_tps.c ****   * CYBLE_ERROR_OK - The characteristic value was read successfully.
 178:.\Generated_Source\PSoC4/BLE_tps.c ****   * CYBLE_ERROR_INVALID_PARAMETER - Validation of input parameters failed.
 179:.\Generated_Source\PSoC4/BLE_tps.c **** 
ARM GAS  C:\Users\MANISH~1\AppData\Local\Temp\cc31JF4v.s 			page 6


 180:.\Generated_Source\PSoC4/BLE_tps.c **** ******************************************************************************/
 181:.\Generated_Source\PSoC4/BLE_tps.c **** CYBLE_API_RESULT_T CyBle_TpssSetCharacteristicValue(CYBLE_TPS_CHAR_INDEX_T charIndex,
 182:.\Generated_Source\PSoC4/BLE_tps.c ****                                                     uint8 attrSize,
 183:.\Generated_Source\PSoC4/BLE_tps.c ****                                                     int8 *attrValue)
 184:.\Generated_Source\PSoC4/BLE_tps.c **** {
 185:.\Generated_Source\PSoC4/BLE_tps.c ****     CYBLE_GATT_HANDLE_VALUE_PAIR_T locHandleValuePair;
 186:.\Generated_Source\PSoC4/BLE_tps.c ****     CYBLE_API_RESULT_T apiResult = CYBLE_ERROR_INVALID_PARAMETER;
 187:.\Generated_Source\PSoC4/BLE_tps.c **** 
 188:.\Generated_Source\PSoC4/BLE_tps.c ****     if((NULL != attrValue) && (CYBLE_TPS_TX_POWER_LEVEL == charIndex) && (CYBLE_TPS_TX_POWER_LEVEL_
 189:.\Generated_Source\PSoC4/BLE_tps.c ****     {
 190:.\Generated_Source\PSoC4/BLE_tps.c ****         if((*attrValue <= CYBLE_TPS_TX_POWER_LEVEL_MAX) && (*attrValue >= CYBLE_TPS_TX_POWER_LEVEL_
 191:.\Generated_Source\PSoC4/BLE_tps.c ****         {
 192:.\Generated_Source\PSoC4/BLE_tps.c ****             locHandleValuePair.attrHandle = cyBle_tpss.txPowerLevelCharHandle;
 193:.\Generated_Source\PSoC4/BLE_tps.c ****             locHandleValuePair.value.len = attrSize;
 194:.\Generated_Source\PSoC4/BLE_tps.c ****             locHandleValuePair.value.val = (uint8 *) attrValue;
 195:.\Generated_Source\PSoC4/BLE_tps.c ****             
 196:.\Generated_Source\PSoC4/BLE_tps.c ****             /* Set Tx Power Level characteristic value to GATT database.
 197:.\Generated_Source\PSoC4/BLE_tps.c ****                 Need to handle return type difference of CyBle_GattsWriteAttributeValue() and
 198:.\Generated_Source\PSoC4/BLE_tps.c ****                 CyBle_TpssSetCharacteristicValue(). */
 199:.\Generated_Source\PSoC4/BLE_tps.c ****             if(CYBLE_GATT_ERR_NONE == 
 200:.\Generated_Source\PSoC4/BLE_tps.c ****                 CyBle_GattsWriteAttributeValue(&locHandleValuePair, 0u, NULL, CYBLE_GATT_DB_LOCALLY
 201:.\Generated_Source\PSoC4/BLE_tps.c ****             {
 202:.\Generated_Source\PSoC4/BLE_tps.c ****                 /* Indicate success */
 203:.\Generated_Source\PSoC4/BLE_tps.c ****                 apiResult = CYBLE_ERROR_OK;
 204:.\Generated_Source\PSoC4/BLE_tps.c ****             }
 205:.\Generated_Source\PSoC4/BLE_tps.c ****         }
 206:.\Generated_Source\PSoC4/BLE_tps.c ****     }
 207:.\Generated_Source\PSoC4/BLE_tps.c ****     
 208:.\Generated_Source\PSoC4/BLE_tps.c ****     /* Return status */
 209:.\Generated_Source\PSoC4/BLE_tps.c ****     return(apiResult);
 210:.\Generated_Source\PSoC4/BLE_tps.c **** }
 211:.\Generated_Source\PSoC4/BLE_tps.c **** 
 212:.\Generated_Source\PSoC4/BLE_tps.c **** 
 213:.\Generated_Source\PSoC4/BLE_tps.c **** /******************************************************************************
 214:.\Generated_Source\PSoC4/BLE_tps.c **** ##Function Name: CyBle_TpssGetCharacteristicValue
 215:.\Generated_Source\PSoC4/BLE_tps.c **** *******************************************************************************
 216:.\Generated_Source\PSoC4/BLE_tps.c **** 
 217:.\Generated_Source\PSoC4/BLE_tps.c **** Summary:
 218:.\Generated_Source\PSoC4/BLE_tps.c ****  Gets characteristic value of the Tx Power Service, which is identified by 
 219:.\Generated_Source\PSoC4/BLE_tps.c ****  charIndex.
 220:.\Generated_Source\PSoC4/BLE_tps.c **** 
 221:.\Generated_Source\PSoC4/BLE_tps.c **** Parameters:
 222:.\Generated_Source\PSoC4/BLE_tps.c ****  charIndex: The index of the Tx Power characteristic.
 223:.\Generated_Source\PSoC4/BLE_tps.c ****  attrSize: The size of the Tx Power characteristic value attribute.
 224:.\Generated_Source\PSoC4/BLE_tps.c ****  *attrValue: The pointer to the location where Tx Power characteristic
 225:.\Generated_Source\PSoC4/BLE_tps.c ****               value data should be stored.
 226:.\Generated_Source\PSoC4/BLE_tps.c **** 
 227:.\Generated_Source\PSoC4/BLE_tps.c **** Return:
 228:.\Generated_Source\PSoC4/BLE_tps.c ****  Return value is of type CYBLE_API_RESULT_T.
 229:.\Generated_Source\PSoC4/BLE_tps.c ****   * CYBLE_ERROR_OK - Characteristic value was read successfully
 230:.\Generated_Source\PSoC4/BLE_tps.c ****   * CYBLE_ERROR_INVALID_PARAMETER - Validation of the input parameters failed
 231:.\Generated_Source\PSoC4/BLE_tps.c **** 
 232:.\Generated_Source\PSoC4/BLE_tps.c **** ******************************************************************************/
 233:.\Generated_Source\PSoC4/BLE_tps.c **** CYBLE_API_RESULT_T CyBle_TpssGetCharacteristicValue(CYBLE_TPS_CHAR_INDEX_T charIndex,
 234:.\Generated_Source\PSoC4/BLE_tps.c ****                                                     uint8 attrSize,
 235:.\Generated_Source\PSoC4/BLE_tps.c ****                                                     int8 *attrValue)
 236:.\Generated_Source\PSoC4/BLE_tps.c **** {
ARM GAS  C:\Users\MANISH~1\AppData\Local\Temp\cc31JF4v.s 			page 7


 237:.\Generated_Source\PSoC4/BLE_tps.c ****     CYBLE_GATT_HANDLE_VALUE_PAIR_T locHandleValuePair;
 238:.\Generated_Source\PSoC4/BLE_tps.c ****     CYBLE_API_RESULT_T apiResult = CYBLE_ERROR_INVALID_PARAMETER;
 239:.\Generated_Source\PSoC4/BLE_tps.c **** 
 240:.\Generated_Source\PSoC4/BLE_tps.c ****     if((NULL != attrValue) && (CYBLE_TPS_TX_POWER_LEVEL == charIndex) && (CYBLE_TPS_TX_POWER_LEVEL_
 241:.\Generated_Source\PSoC4/BLE_tps.c ****     {
 242:.\Generated_Source\PSoC4/BLE_tps.c ****         locHandleValuePair.attrHandle = cyBle_tpss.txPowerLevelCharHandle;
 243:.\Generated_Source\PSoC4/BLE_tps.c ****         locHandleValuePair.value.len = attrSize;
 244:.\Generated_Source\PSoC4/BLE_tps.c ****         locHandleValuePair.value.val = (uint8 *)attrValue;
 245:.\Generated_Source\PSoC4/BLE_tps.c ****         
 246:.\Generated_Source\PSoC4/BLE_tps.c ****         /* Get Tx Power Level characteristic value from GATT database */
 247:.\Generated_Source\PSoC4/BLE_tps.c ****         if(CYBLE_GATT_ERR_NONE == 
 248:.\Generated_Source\PSoC4/BLE_tps.c ****             CyBle_GattsReadAttributeValue(&locHandleValuePair, NULL, CYBLE_GATT_DB_LOCALLY_INITIATE
 249:.\Generated_Source\PSoC4/BLE_tps.c ****         {
 250:.\Generated_Source\PSoC4/BLE_tps.c ****             /* Indicate success */
 251:.\Generated_Source\PSoC4/BLE_tps.c ****             apiResult = CYBLE_ERROR_OK;
 252:.\Generated_Source\PSoC4/BLE_tps.c ****         }
 253:.\Generated_Source\PSoC4/BLE_tps.c ****     }
 254:.\Generated_Source\PSoC4/BLE_tps.c ****     
 255:.\Generated_Source\PSoC4/BLE_tps.c ****     /* Return status */
 256:.\Generated_Source\PSoC4/BLE_tps.c ****     return(apiResult);
 257:.\Generated_Source\PSoC4/BLE_tps.c **** }
 258:.\Generated_Source\PSoC4/BLE_tps.c **** 
 259:.\Generated_Source\PSoC4/BLE_tps.c **** 
 260:.\Generated_Source\PSoC4/BLE_tps.c **** /******************************************************************************
 261:.\Generated_Source\PSoC4/BLE_tps.c **** ##Function Name: CyBle_TpssGetCharacteristicDescriptor
 262:.\Generated_Source\PSoC4/BLE_tps.c **** *******************************************************************************
 263:.\Generated_Source\PSoC4/BLE_tps.c **** 
 264:.\Generated_Source\PSoC4/BLE_tps.c **** Summary:
 265:.\Generated_Source\PSoC4/BLE_tps.c ****  Gets characteristic descriptor of specified characteristic of the Tx Power
 266:.\Generated_Source\PSoC4/BLE_tps.c ****  Service.
 267:.\Generated_Source\PSoC4/BLE_tps.c **** 
 268:.\Generated_Source\PSoC4/BLE_tps.c **** Parameters:
 269:.\Generated_Source\PSoC4/BLE_tps.c ****  charIndex: The index of the characteristic.
 270:.\Generated_Source\PSoC4/BLE_tps.c ****  descrIndex: The index of the descriptor.
 271:.\Generated_Source\PSoC4/BLE_tps.c ****  attrSize: The size of the characteristic value attribute.
 272:.\Generated_Source\PSoC4/BLE_tps.c ****  *attrValue: The pointer to the location where characteristic descriptor value
 273:.\Generated_Source\PSoC4/BLE_tps.c ****               data should be stored.
 274:.\Generated_Source\PSoC4/BLE_tps.c **** 
 275:.\Generated_Source\PSoC4/BLE_tps.c **** Return:
 276:.\Generated_Source\PSoC4/BLE_tps.c ****  Return value is of type CYBLE_API_RESULT_T.
 277:.\Generated_Source\PSoC4/BLE_tps.c ****   * CYBLE_ERROR_OK - Characteristic Descriptor value was read successfully
 278:.\Generated_Source\PSoC4/BLE_tps.c ****   * CYBLE_ERROR_INVALID_PARAMETER - Validation of input parameters failed
 279:.\Generated_Source\PSoC4/BLE_tps.c ****   * CYBLE_ERROR_GATT_DB_INVALID_ATTR_HANDLE - Optional descriptor is absent
 280:.\Generated_Source\PSoC4/BLE_tps.c **** 
 281:.\Generated_Source\PSoC4/BLE_tps.c **** ******************************************************************************/
 282:.\Generated_Source\PSoC4/BLE_tps.c **** CYBLE_API_RESULT_T CyBle_TpssGetCharacteristicDescriptor(CYBLE_TPS_CHAR_INDEX_T charIndex,
 283:.\Generated_Source\PSoC4/BLE_tps.c ****                                                          CYBLE_TPS_CHAR_DESCRIPTORS_T descrIndex,
 284:.\Generated_Source\PSoC4/BLE_tps.c ****                                                          uint8 attrSize,
 285:.\Generated_Source\PSoC4/BLE_tps.c ****                                                          uint8 *attrValue)
 286:.\Generated_Source\PSoC4/BLE_tps.c **** {
 287:.\Generated_Source\PSoC4/BLE_tps.c ****     CYBLE_GATT_HANDLE_VALUE_PAIR_T locHandleValuePair;
 288:.\Generated_Source\PSoC4/BLE_tps.c ****     CYBLE_API_RESULT_T apiResult = CYBLE_ERROR_INVALID_PARAMETER;
 289:.\Generated_Source\PSoC4/BLE_tps.c **** 
 290:.\Generated_Source\PSoC4/BLE_tps.c ****     if((charIndex == CYBLE_TPS_TX_POWER_LEVEL) && (descrIndex == CYBLE_TPS_CCCD))
 291:.\Generated_Source\PSoC4/BLE_tps.c ****     {
 292:.\Generated_Source\PSoC4/BLE_tps.c ****         if(CYBLE_GATT_INVALID_ATTR_HANDLE_VALUE != cyBle_tpss.txPowerLevelCccdHandle)
 293:.\Generated_Source\PSoC4/BLE_tps.c ****         {
ARM GAS  C:\Users\MANISH~1\AppData\Local\Temp\cc31JF4v.s 			page 8


 294:.\Generated_Source\PSoC4/BLE_tps.c ****             locHandleValuePair.attrHandle = cyBle_tpss.txPowerLevelCccdHandle;
 295:.\Generated_Source\PSoC4/BLE_tps.c ****             locHandleValuePair.value.len = attrSize;
 296:.\Generated_Source\PSoC4/BLE_tps.c ****             locHandleValuePair.value.val = (uint8 *) attrValue;
 297:.\Generated_Source\PSoC4/BLE_tps.c ****             
 298:.\Generated_Source\PSoC4/BLE_tps.c ****             /* Set Client Characteristic Configuration Descriptor of Tx Power Level 
 299:.\Generated_Source\PSoC4/BLE_tps.c ****                 characteristic to GATT database.
 300:.\Generated_Source\PSoC4/BLE_tps.c ****                 Need to handle return type difference of CyBle_GattsWriteAttributeValue() and
 301:.\Generated_Source\PSoC4/BLE_tps.c ****                 CyBle_TpssGetCharacteristicDescriptor(). */
 302:.\Generated_Source\PSoC4/BLE_tps.c ****             if(CYBLE_GATT_ERR_NONE == 
 303:.\Generated_Source\PSoC4/BLE_tps.c ****                 CyBle_GattsReadAttributeValue(&locHandleValuePair, NULL, CYBLE_GATT_DB_LOCALLY_INIT
 304:.\Generated_Source\PSoC4/BLE_tps.c ****             {
 305:.\Generated_Source\PSoC4/BLE_tps.c ****                 /* Indicate success */
 306:.\Generated_Source\PSoC4/BLE_tps.c ****                 apiResult = CYBLE_ERROR_OK;
 307:.\Generated_Source\PSoC4/BLE_tps.c ****             }
 308:.\Generated_Source\PSoC4/BLE_tps.c ****         }
 309:.\Generated_Source\PSoC4/BLE_tps.c ****         else
 310:.\Generated_Source\PSoC4/BLE_tps.c ****         {
 311:.\Generated_Source\PSoC4/BLE_tps.c ****             apiResult = CYBLE_ERROR_GATT_DB_INVALID_ATTR_HANDLE;
 312:.\Generated_Source\PSoC4/BLE_tps.c ****         }
 313:.\Generated_Source\PSoC4/BLE_tps.c ****     }
 314:.\Generated_Source\PSoC4/BLE_tps.c **** 
 315:.\Generated_Source\PSoC4/BLE_tps.c ****     return (apiResult);
 316:.\Generated_Source\PSoC4/BLE_tps.c **** }
 317:.\Generated_Source\PSoC4/BLE_tps.c **** 
 318:.\Generated_Source\PSoC4/BLE_tps.c **** 
 319:.\Generated_Source\PSoC4/BLE_tps.c **** /******************************************************************************
 320:.\Generated_Source\PSoC4/BLE_tps.c **** ##Function Name: CyBle_TpssSendNotification
 321:.\Generated_Source\PSoC4/BLE_tps.c **** *******************************************************************************
 322:.\Generated_Source\PSoC4/BLE_tps.c **** 
 323:.\Generated_Source\PSoC4/BLE_tps.c **** Summary:
 324:.\Generated_Source\PSoC4/BLE_tps.c ****  Sends a notification with the characteristic value, as specified by charIndex,
 325:.\Generated_Source\PSoC4/BLE_tps.c ****  to the Client device.
 326:.\Generated_Source\PSoC4/BLE_tps.c **** 
 327:.\Generated_Source\PSoC4/BLE_tps.c ****  The CYBLE_EVT_TPSC_NOTIFICATION event is received by the peer device on 
 328:.\Generated_Source\PSoC4/BLE_tps.c ****  invoking this function.
 329:.\Generated_Source\PSoC4/BLE_tps.c **** 
 330:.\Generated_Source\PSoC4/BLE_tps.c **** Parameters: 
 331:.\Generated_Source\PSoC4/BLE_tps.c ****  connHandle: The connection handle.
 332:.\Generated_Source\PSoC4/BLE_tps.c ****  charIndex: The index of the service characteristic.
 333:.\Generated_Source\PSoC4/BLE_tps.c ****  attrSize: The size of the characteristic value attribute.
 334:.\Generated_Source\PSoC4/BLE_tps.c ****  *attrValue: The pointer to the characteristic value data that should be 
 335:.\Generated_Source\PSoC4/BLE_tps.c ****               sent to the client's device.
 336:.\Generated_Source\PSoC4/BLE_tps.c **** 
 337:.\Generated_Source\PSoC4/BLE_tps.c **** Return:
 338:.\Generated_Source\PSoC4/BLE_tps.c ****  Return value is of type CYBLE_API_RESULT_T.
 339:.\Generated_Source\PSoC4/BLE_tps.c ****   * CYBLE_ERROR_OK - The request handled successfully.
 340:.\Generated_Source\PSoC4/BLE_tps.c ****   * CYBLE_ERROR_INVALID_PARAMETER - Validation of input parameter failed.
 341:.\Generated_Source\PSoC4/BLE_tps.c ****   * CYBLE_ERROR_INVALID_OPERATION - Operation is invalid for this.
 342:.\Generated_Source\PSoC4/BLE_tps.c ****                                      characteristic.
 343:.\Generated_Source\PSoC4/BLE_tps.c ****   * CYBLE_ERROR_INVALID_STATE - Connection with client is not established.
 344:.\Generated_Source\PSoC4/BLE_tps.c ****   * CYBLE_ERROR_NTF_DISABLED - Notification is not enabled by the client.
 345:.\Generated_Source\PSoC4/BLE_tps.c ****   * CYBLE_ERROR_MEMORY_ALLOCATION_FAILED - Memory allocation failed.
 346:.\Generated_Source\PSoC4/BLE_tps.c **** 
 347:.\Generated_Source\PSoC4/BLE_tps.c **** ******************************************************************************/
 348:.\Generated_Source\PSoC4/BLE_tps.c **** CYBLE_API_RESULT_T CyBle_TpssSendNotification(CYBLE_CONN_HANDLE_T connHandle, 
 349:.\Generated_Source\PSoC4/BLE_tps.c ****                                               CYBLE_TPS_CHAR_INDEX_T charIndex,
 350:.\Generated_Source\PSoC4/BLE_tps.c ****                                               uint8 attrSize,
ARM GAS  C:\Users\MANISH~1\AppData\Local\Temp\cc31JF4v.s 			page 9


 351:.\Generated_Source\PSoC4/BLE_tps.c ****                                               int8 *attrValue)
 352:.\Generated_Source\PSoC4/BLE_tps.c **** {
 353:.\Generated_Source\PSoC4/BLE_tps.c ****     CYBLE_GATTS_HANDLE_VALUE_NTF_T ntfReqParam;
 354:.\Generated_Source\PSoC4/BLE_tps.c ****     CYBLE_API_RESULT_T apiResult = CYBLE_ERROR_INVALID_PARAMETER;
 355:.\Generated_Source\PSoC4/BLE_tps.c ****   
 356:.\Generated_Source\PSoC4/BLE_tps.c ****     if((NULL != attrValue) && (CYBLE_TPS_TX_POWER_LEVEL == charIndex) && (CYBLE_TPS_TX_POWER_LEVEL_
 357:.\Generated_Source\PSoC4/BLE_tps.c ****     {
 358:.\Generated_Source\PSoC4/BLE_tps.c ****         if(CYBLE_IS_NOTIFICATION_ENABLED(cyBle_tpss.txPowerLevelCccdHandle))
 359:.\Generated_Source\PSoC4/BLE_tps.c ****         {
 360:.\Generated_Source\PSoC4/BLE_tps.c ****             /* Fill all fields of write request structure ... */
 361:.\Generated_Source\PSoC4/BLE_tps.c ****             ntfReqParam.attrHandle = cyBle_tpss.txPowerLevelCharHandle; 
 362:.\Generated_Source\PSoC4/BLE_tps.c ****             ntfReqParam.value.val = (uint8 *) attrValue;
 363:.\Generated_Source\PSoC4/BLE_tps.c ****             ntfReqParam.value.len = attrSize;
 364:.\Generated_Source\PSoC4/BLE_tps.c **** 
 365:.\Generated_Source\PSoC4/BLE_tps.c ****             /* Set Tx Power Level characteristic value to GATT database.
 366:.\Generated_Source\PSoC4/BLE_tps.c ****                 Need to handle return type difference of CyBle_GattsWriteAttributeValue() and
 367:.\Generated_Source\PSoC4/BLE_tps.c ****                 CyBle_TpssSetCharacteristicValue(). */
 368:.\Generated_Source\PSoC4/BLE_tps.c ****             if(CYBLE_GATT_ERR_NONE == 
 369:.\Generated_Source\PSoC4/BLE_tps.c ****                 CyBle_GattsWriteAttributeValue(&ntfReqParam, 0u, NULL, CYBLE_GATT_DB_LOCALLY_INITIA
 370:.\Generated_Source\PSoC4/BLE_tps.c ****             {
 371:.\Generated_Source\PSoC4/BLE_tps.c ****                 if(CYBLE_STATE_CONNECTED != CyBle_GetState())
 372:.\Generated_Source\PSoC4/BLE_tps.c ****                 {
 373:.\Generated_Source\PSoC4/BLE_tps.c ****                     apiResult = CYBLE_ERROR_INVALID_STATE;
 374:.\Generated_Source\PSoC4/BLE_tps.c ****                 }
 375:.\Generated_Source\PSoC4/BLE_tps.c ****                 else
 376:.\Generated_Source\PSoC4/BLE_tps.c ****                 {
 377:.\Generated_Source\PSoC4/BLE_tps.c ****                     /* Send notification to client using previously filled structure */
 378:.\Generated_Source\PSoC4/BLE_tps.c ****                     apiResult = CyBle_GattsNotification(connHandle, &ntfReqParam);
 379:.\Generated_Source\PSoC4/BLE_tps.c ****                 }
 380:.\Generated_Source\PSoC4/BLE_tps.c ****             }
 381:.\Generated_Source\PSoC4/BLE_tps.c ****         }
 382:.\Generated_Source\PSoC4/BLE_tps.c ****         else
 383:.\Generated_Source\PSoC4/BLE_tps.c ****         {
 384:.\Generated_Source\PSoC4/BLE_tps.c ****            apiResult = CYBLE_ERROR_NTF_DISABLED;
 385:.\Generated_Source\PSoC4/BLE_tps.c ****         }
 386:.\Generated_Source\PSoC4/BLE_tps.c ****     }
 387:.\Generated_Source\PSoC4/BLE_tps.c **** 
 388:.\Generated_Source\PSoC4/BLE_tps.c ****     /* Return status */
 389:.\Generated_Source\PSoC4/BLE_tps.c ****     return(apiResult);
 390:.\Generated_Source\PSoC4/BLE_tps.c **** }
 391:.\Generated_Source\PSoC4/BLE_tps.c **** 
 392:.\Generated_Source\PSoC4/BLE_tps.c **** #endif /* (CYBLE_GATT_ROLE_SERVER) */
 393:.\Generated_Source\PSoC4/BLE_tps.c **** 
 394:.\Generated_Source\PSoC4/BLE_tps.c **** 
 395:.\Generated_Source\PSoC4/BLE_tps.c **** #ifdef CYBLE_TPS_CLIENT
 396:.\Generated_Source\PSoC4/BLE_tps.c **** 
 397:.\Generated_Source\PSoC4/BLE_tps.c **** /******************************************************************************
 398:.\Generated_Source\PSoC4/BLE_tps.c **** ##Function Name: CyBle_TpscDiscoverCharacteristicsEventHandler
 399:.\Generated_Source\PSoC4/BLE_tps.c **** *******************************************************************************
 400:.\Generated_Source\PSoC4/BLE_tps.c **** 
 401:.\Generated_Source\PSoC4/BLE_tps.c **** Summary:
 402:.\Generated_Source\PSoC4/BLE_tps.c ****  This function is called on receiving a CYBLE_EVT_GATTC_READ_BY_TYPE_RSP event.
 403:.\Generated_Source\PSoC4/BLE_tps.c ****  Based on the service UUID, an appropriate data structure is populated using the 
 404:.\Generated_Source\PSoC4/BLE_tps.c ****  data received as part of the callback.
 405:.\Generated_Source\PSoC4/BLE_tps.c **** 
 406:.\Generated_Source\PSoC4/BLE_tps.c **** Parameters: 
 407:.\Generated_Source\PSoC4/BLE_tps.c ****  CYBLE_DISC_CHAR_INFO_T * discCharInfo: The pointer to the characteristic 
ARM GAS  C:\Users\MANISH~1\AppData\Local\Temp\cc31JF4v.s 			page 10


 408:.\Generated_Source\PSoC4/BLE_tps.c ****                                          information structure.
 409:.\Generated_Source\PSoC4/BLE_tps.c **** 
 410:.\Generated_Source\PSoC4/BLE_tps.c **** Return: 
 411:.\Generated_Source\PSoC4/BLE_tps.c ****  None
 412:.\Generated_Source\PSoC4/BLE_tps.c **** 
 413:.\Generated_Source\PSoC4/BLE_tps.c **** ******************************************************************************/
 414:.\Generated_Source\PSoC4/BLE_tps.c **** void CyBle_TpscDiscoverCharacteristicsEventHandler(CYBLE_DISC_CHAR_INFO_T *discCharInfo)
 415:.\Generated_Source\PSoC4/BLE_tps.c **** {
 107              		.loc 1 415 0
 108              		.cfi_startproc
 109 0000 80B5     		push	{r7, lr}
 110              		.cfi_def_cfa_offset 8
 111              		.cfi_offset 7, -8
 112              		.cfi_offset 14, -4
 113 0002 82B0     		sub	sp, sp, #8
 114              		.cfi_def_cfa_offset 16
 115 0004 00AF     		add	r7, sp, #0
 116              		.cfi_def_cfa_register 7
 117 0006 7860     		str	r0, [r7, #4]
 416:.\Generated_Source\PSoC4/BLE_tps.c ****     if(discCharInfo->uuid.uuid16 == CYBLE_UUID_CHAR_TX_POWER_LEVEL)
 118              		.loc 1 416 0
 119 0008 7B68     		ldr	r3, [r7, #4]
 120 000a DA88     		ldrh	r2, [r3, #6]
 121 000c 0F4B     		ldr	r3, .L10
 122 000e 9A42     		cmp	r2, r3
 123 0010 19D1     		bne	.L7
 417:.\Generated_Source\PSoC4/BLE_tps.c ****     {
 418:.\Generated_Source\PSoC4/BLE_tps.c ****         /* Check for  invalid char handle */
 419:.\Generated_Source\PSoC4/BLE_tps.c ****         if(cyBle_tpsc.txPowerLevelChar.valueHandle == CYBLE_GATT_INVALID_ATTR_HANDLE_VALUE)
 124              		.loc 1 419 0
 125 0012 0F4B     		ldr	r3, .L10+4
 126 0014 5B88     		ldrh	r3, [r3, #2]
 127 0016 002B     		cmp	r3, #0
 128 0018 15D1     		bne	.L7
 420:.\Generated_Source\PSoC4/BLE_tps.c ****         {
 421:.\Generated_Source\PSoC4/BLE_tps.c ****             /* Save Tx Power Level Characteristic handle */
 422:.\Generated_Source\PSoC4/BLE_tps.c ****             CyBle_CheckStoreCharHandle(cyBle_tpsc.txPowerLevelChar);
 129              		.loc 1 422 0
 130 001a 0D4B     		ldr	r3, .L10+4
 131 001c 5B88     		ldrh	r3, [r3, #2]
 132 001e 002B     		cmp	r3, #0
 133 0020 08D1     		bne	.L9
 134              		.loc 1 422 0 is_stmt 0 discriminator 1
 135 0022 7B68     		ldr	r3, [r7, #4]
 136 0024 9A88     		ldrh	r2, [r3, #4]
 137 0026 0A4B     		ldr	r3, .L10+4
 138 0028 5A80     		strh	r2, [r3, #2]
 139 002a 7B68     		ldr	r3, [r7, #4]
 140 002c 9A78     		ldrb	r2, [r3, #2]
 141 002e 084B     		ldr	r3, .L10+4
 142 0030 1A70     		strb	r2, [r3]
 143 0032 08E0     		b	.L7
 144              	.L9:
 145              		.loc 1 422 0 discriminator 2
 146 0034 074B     		ldr	r3, .L10+8
 147 0036 1B68     		ldr	r3, [r3]
 148 0038 7A68     		ldr	r2, [r7, #4]
ARM GAS  C:\Users\MANISH~1\AppData\Local\Temp\cc31JF4v.s 			page 11


 149 003a 0632     		add	r2, r2, #6
 150 003c 8621     		mov	r1, #134
 151 003e 4900     		lsl	r1, r1, #1
 152 0040 081C     		mov	r0, r1
 153 0042 111C     		mov	r1, r2
 154 0044 9847     		blx	r3
 155              	.L7:
 423:.\Generated_Source\PSoC4/BLE_tps.c ****         }
 424:.\Generated_Source\PSoC4/BLE_tps.c ****     }
 425:.\Generated_Source\PSoC4/BLE_tps.c **** }
 156              		.loc 1 425 0 is_stmt 1
 157 0046 BD46     		mov	sp, r7
 158 0048 02B0     		add	sp, sp, #8
 159              		@ sp needed
 160 004a 80BD     		pop	{r7, pc}
 161              	.L11:
 162              		.align	2
 163              	.L10:
 164 004c 072A0000 		.word	10759
 165 0050 00000000 		.word	cyBle_tpsc
 166 0054 00000000 		.word	CyBle_ApplCallback
 167              		.cfi_endproc
 168              	.LFE4:
 169              		.size	CyBle_TpscDiscoverCharacteristicsEventHandler, .-CyBle_TpscDiscoverCharacteristicsEventHandl
 170              		.section	.text.CyBle_TpscDiscoverCharDescriptorsEventHandler,"ax",%progbits
 171              		.align	2
 172              		.global	CyBle_TpscDiscoverCharDescriptorsEventHandler
 173              		.code	16
 174              		.thumb_func
 175              		.type	CyBle_TpscDiscoverCharDescriptorsEventHandler, %function
 176              	CyBle_TpscDiscoverCharDescriptorsEventHandler:
 177              	.LFB5:
 426:.\Generated_Source\PSoC4/BLE_tps.c **** 
 427:.\Generated_Source\PSoC4/BLE_tps.c **** 
 428:.\Generated_Source\PSoC4/BLE_tps.c **** /******************************************************************************
 429:.\Generated_Source\PSoC4/BLE_tps.c **** ##Function Name: CyBle_TpscDiscoverCharDescriptorsEventHandler
 430:.\Generated_Source\PSoC4/BLE_tps.c **** *******************************************************************************
 431:.\Generated_Source\PSoC4/BLE_tps.c **** 
 432:.\Generated_Source\PSoC4/BLE_tps.c **** Summary:
 433:.\Generated_Source\PSoC4/BLE_tps.c ****  This function is called on receiving a CYBLE_EVT_GATTC_FIND_INFO_RSP event. 
 434:.\Generated_Source\PSoC4/BLE_tps.c ****  This event is generated when a server successfully sends the data for 
 435:.\Generated_Source\PSoC4/BLE_tps.c ****  CYBLE_EVT_GATTC_FIND_INFO_REQ. Based on the service UUID, an appropriate data 
 436:.\Generated_Source\PSoC4/BLE_tps.c ****  structure is populated to the service with a service callback.
 437:.\Generated_Source\PSoC4/BLE_tps.c **** 
 438:.\Generated_Source\PSoC4/BLE_tps.c **** Parameters: 
 439:.\Generated_Source\PSoC4/BLE_tps.c ****  CYBLE_DISC_DESCR_INFO_T * discDescrInfo: The pointer to descriptor information
 440:.\Generated_Source\PSoC4/BLE_tps.c ****                                            structure.
 441:.\Generated_Source\PSoC4/BLE_tps.c **** 
 442:.\Generated_Source\PSoC4/BLE_tps.c **** Return: 
 443:.\Generated_Source\PSoC4/BLE_tps.c ****  None
 444:.\Generated_Source\PSoC4/BLE_tps.c **** 
 445:.\Generated_Source\PSoC4/BLE_tps.c **** ******************************************************************************/
 446:.\Generated_Source\PSoC4/BLE_tps.c **** void CyBle_TpscDiscoverCharDescriptorsEventHandler(CYBLE_DISC_DESCR_INFO_T *discDescrInfo)
 447:.\Generated_Source\PSoC4/BLE_tps.c **** {
 178              		.loc 1 447 0
 179              		.cfi_startproc
 180 0000 80B5     		push	{r7, lr}
ARM GAS  C:\Users\MANISH~1\AppData\Local\Temp\cc31JF4v.s 			page 12


 181              		.cfi_def_cfa_offset 8
 182              		.cfi_offset 7, -8
 183              		.cfi_offset 14, -4
 184 0002 82B0     		sub	sp, sp, #8
 185              		.cfi_def_cfa_offset 16
 186 0004 00AF     		add	r7, sp, #0
 187              		.cfi_def_cfa_register 7
 188 0006 7860     		str	r0, [r7, #4]
 448:.\Generated_Source\PSoC4/BLE_tps.c ****     if(discDescrInfo->uuid.uuid16 == CYBLE_UUID_CHAR_CLIENT_CONFIG)
 189              		.loc 1 448 0
 190 0008 7B68     		ldr	r3, [r7, #4]
 191 000a 9A88     		ldrh	r2, [r3, #4]
 192 000c 0B4B     		ldr	r3, .L15
 193 000e 9A42     		cmp	r2, r3
 194 0010 11D1     		bne	.L12
 449:.\Generated_Source\PSoC4/BLE_tps.c ****     {
 450:.\Generated_Source\PSoC4/BLE_tps.c ****         CyBle_CheckStoreCharDescrHandle(cyBle_tpsc.txPowerLevelCccdHandle);
 195              		.loc 1 450 0
 196 0012 0B4B     		ldr	r3, .L15+4
 197 0014 9B88     		ldrh	r3, [r3, #4]
 198 0016 002B     		cmp	r3, #0
 199 0018 04D1     		bne	.L14
 200              		.loc 1 450 0 is_stmt 0 discriminator 1
 201 001a 7B68     		ldr	r3, [r7, #4]
 202 001c 5A88     		ldrh	r2, [r3, #2]
 203 001e 084B     		ldr	r3, .L15+4
 204 0020 9A80     		strh	r2, [r3, #4]
 205 0022 08E0     		b	.L12
 206              	.L14:
 207              		.loc 1 450 0 discriminator 2
 208 0024 074B     		ldr	r3, .L15+8
 209 0026 1B68     		ldr	r3, [r3]
 210 0028 7A68     		ldr	r2, [r7, #4]
 211 002a 0432     		add	r2, r2, #4
 212 002c 8621     		mov	r1, #134
 213 002e 4900     		lsl	r1, r1, #1
 214 0030 081C     		mov	r0, r1
 215 0032 111C     		mov	r1, r2
 216 0034 9847     		blx	r3
 217              	.L12:
 451:.\Generated_Source\PSoC4/BLE_tps.c ****     }
 452:.\Generated_Source\PSoC4/BLE_tps.c **** }
 218              		.loc 1 452 0 is_stmt 1
 219 0036 BD46     		mov	sp, r7
 220 0038 02B0     		add	sp, sp, #8
 221              		@ sp needed
 222 003a 80BD     		pop	{r7, pc}
 223              	.L16:
 224              		.align	2
 225              	.L15:
 226 003c 02290000 		.word	10498
 227 0040 00000000 		.word	cyBle_tpsc
 228 0044 00000000 		.word	CyBle_ApplCallback
 229              		.cfi_endproc
 230              	.LFE5:
 231              		.size	CyBle_TpscDiscoverCharDescriptorsEventHandler, .-CyBle_TpscDiscoverCharDescriptorsEventHandl
 232              		.section	.text.CyBle_TpscNotificationEventHandler,"ax",%progbits
ARM GAS  C:\Users\MANISH~1\AppData\Local\Temp\cc31JF4v.s 			page 13


 233              		.align	2
 234              		.global	CyBle_TpscNotificationEventHandler
 235              		.code	16
 236              		.thumb_func
 237              		.type	CyBle_TpscNotificationEventHandler, %function
 238              	CyBle_TpscNotificationEventHandler:
 239              	.LFB6:
 453:.\Generated_Source\PSoC4/BLE_tps.c **** 
 454:.\Generated_Source\PSoC4/BLE_tps.c **** 
 455:.\Generated_Source\PSoC4/BLE_tps.c **** /******************************************************************************
 456:.\Generated_Source\PSoC4/BLE_tps.c **** ##Function Name: CyBle_TpscNotificationEventHandler
 457:.\Generated_Source\PSoC4/BLE_tps.c **** *******************************************************************************
 458:.\Generated_Source\PSoC4/BLE_tps.c **** 
 459:.\Generated_Source\PSoC4/BLE_tps.c **** Summary:
 460:.\Generated_Source\PSoC4/BLE_tps.c ****  Handles the Notification Event for the Tx Power Service.
 461:.\Generated_Source\PSoC4/BLE_tps.c **** 
 462:.\Generated_Source\PSoC4/BLE_tps.c **** Parameters:
 463:.\Generated_Source\PSoC4/BLE_tps.c ****  CYBLE_GATTC_HANDLE_VALUE_NTF_PARAM_T *eventParam: The pointer to the data 
 464:.\Generated_Source\PSoC4/BLE_tps.c ****                                                     structure specified by the event.
 465:.\Generated_Source\PSoC4/BLE_tps.c **** 
 466:.\Generated_Source\PSoC4/BLE_tps.c **** Return:
 467:.\Generated_Source\PSoC4/BLE_tps.c ****  None
 468:.\Generated_Source\PSoC4/BLE_tps.c **** 
 469:.\Generated_Source\PSoC4/BLE_tps.c **** ******************************************************************************/
 470:.\Generated_Source\PSoC4/BLE_tps.c **** void CyBle_TpscNotificationEventHandler(CYBLE_GATTC_HANDLE_VALUE_NTF_PARAM_T *eventParam)
 471:.\Generated_Source\PSoC4/BLE_tps.c **** {
 240              		.loc 1 471 0
 241              		.cfi_startproc
 242 0000 80B5     		push	{r7, lr}
 243              		.cfi_def_cfa_offset 8
 244              		.cfi_offset 7, -8
 245              		.cfi_offset 14, -4
 246 0002 84B0     		sub	sp, sp, #16
 247              		.cfi_def_cfa_offset 24
 248 0004 00AF     		add	r7, sp, #0
 249              		.cfi_def_cfa_register 7
 250 0006 7860     		str	r0, [r7, #4]
 472:.\Generated_Source\PSoC4/BLE_tps.c ****     if(NULL != CyBle_TpsApplCallback)
 251              		.loc 1 472 0
 252 0008 164B     		ldr	r3, .L19
 253 000a 1B68     		ldr	r3, [r3]
 254 000c 002B     		cmp	r3, #0
 255 000e 25D0     		beq	.L17
 473:.\Generated_Source\PSoC4/BLE_tps.c ****     {
 474:.\Generated_Source\PSoC4/BLE_tps.c ****         if(cyBle_tpsc.txPowerLevelChar.valueHandle == eventParam->handleValPair.attrHandle)
 256              		.loc 1 474 0
 257 0010 154B     		ldr	r3, .L19+4
 258 0012 5A88     		ldrh	r2, [r3, #2]
 259 0014 7B68     		ldr	r3, [r7, #4]
 260 0016 9B89     		ldrh	r3, [r3, #12]
 261 0018 9A42     		cmp	r2, r3
 262 001a 1FD1     		bne	.L17
 263              	.LBB2:
 475:.\Generated_Source\PSoC4/BLE_tps.c ****         {
 476:.\Generated_Source\PSoC4/BLE_tps.c ****             CYBLE_TPS_CHAR_VALUE_T ntfParam;
 477:.\Generated_Source\PSoC4/BLE_tps.c ****             
 478:.\Generated_Source\PSoC4/BLE_tps.c ****             ntfParam.connHandle = eventParam->connHandle;
ARM GAS  C:\Users\MANISH~1\AppData\Local\Temp\cc31JF4v.s 			page 14


 264              		.loc 1 478 0
 265 001c 3B1C     		mov	r3, r7
 266 001e 0833     		add	r3, r3, #8
 267 0020 7A68     		ldr	r2, [r7, #4]
 268 0022 1288     		ldrh	r2, [r2]
 269 0024 1A80     		strh	r2, [r3]
 479:.\Generated_Source\PSoC4/BLE_tps.c ****             ntfParam.charIndex = CYBLE_TPS_TX_POWER_LEVEL;
 270              		.loc 1 479 0
 271 0026 3B1C     		mov	r3, r7
 272 0028 0833     		add	r3, r3, #8
 273 002a 0022     		mov	r2, #0
 274 002c 9A70     		strb	r2, [r3, #2]
 480:.\Generated_Source\PSoC4/BLE_tps.c ****             ntfParam.value = &eventParam->handleValPair.value;
 275              		.loc 1 480 0
 276 002e 7B68     		ldr	r3, [r7, #4]
 277 0030 1A1D     		add	r2, r3, #4
 278 0032 3B1C     		mov	r3, r7
 279 0034 0833     		add	r3, r3, #8
 280 0036 5A60     		str	r2, [r3, #4]
 481:.\Generated_Source\PSoC4/BLE_tps.c ****             
 482:.\Generated_Source\PSoC4/BLE_tps.c ****             CyBle_TpsApplCallback(CYBLE_EVT_TPSC_NOTIFICATION, (void *)&ntfParam);
 281              		.loc 1 482 0
 282 0038 0A4B     		ldr	r3, .L19
 283 003a 1B68     		ldr	r3, [r3]
 284 003c B422     		mov	r2, #180
 285 003e 111C     		mov	r1, r2
 286 0040 FF31     		add	r1, r1, #255
 287 0042 3A1C     		mov	r2, r7
 288 0044 0832     		add	r2, r2, #8
 289 0046 081C     		mov	r0, r1
 290 0048 111C     		mov	r1, r2
 291 004a 9847     		blx	r3
 483:.\Generated_Source\PSoC4/BLE_tps.c ****             cyBle_eventHandlerFlag &= (uint8) (~CYBLE_CALLBACK);
 292              		.loc 1 483 0
 293 004c 074B     		ldr	r3, .L19+8
 294 004e 1B78     		ldrb	r3, [r3]
 295 0050 DBB2     		uxtb	r3, r3
 296 0052 0122     		mov	r2, #1
 297 0054 9343     		bic	r3, r2
 298 0056 DAB2     		uxtb	r2, r3
 299 0058 044B     		ldr	r3, .L19+8
 300 005a 1A70     		strb	r2, [r3]
 301              	.L17:
 302              	.LBE2:
 484:.\Generated_Source\PSoC4/BLE_tps.c ****         }
 485:.\Generated_Source\PSoC4/BLE_tps.c ****     }
 486:.\Generated_Source\PSoC4/BLE_tps.c **** }
 303              		.loc 1 486 0
 304 005c BD46     		mov	sp, r7
 305 005e 04B0     		add	sp, sp, #16
 306              		@ sp needed
 307 0060 80BD     		pop	{r7, pc}
 308              	.L20:
 309 0062 C046     		.align	2
 310              	.L19:
 311 0064 00000000 		.word	CyBle_TpsApplCallback
 312 0068 00000000 		.word	cyBle_tpsc
ARM GAS  C:\Users\MANISH~1\AppData\Local\Temp\cc31JF4v.s 			page 15


 313 006c 00000000 		.word	cyBle_eventHandlerFlag
 314              		.cfi_endproc
 315              	.LFE6:
 316              		.size	CyBle_TpscNotificationEventHandler, .-CyBle_TpscNotificationEventHandler
 317              		.section	.text.CyBle_TpscReadResponseEventHandler,"ax",%progbits
 318              		.align	2
 319              		.global	CyBle_TpscReadResponseEventHandler
 320              		.code	16
 321              		.thumb_func
 322              		.type	CyBle_TpscReadResponseEventHandler, %function
 323              	CyBle_TpscReadResponseEventHandler:
 324              	.LFB7:
 487:.\Generated_Source\PSoC4/BLE_tps.c **** 
 488:.\Generated_Source\PSoC4/BLE_tps.c **** 
 489:.\Generated_Source\PSoC4/BLE_tps.c **** /******************************************************************************
 490:.\Generated_Source\PSoC4/BLE_tps.c **** ##Function Name: CyBle_TpscReadResponseEventHandler
 491:.\Generated_Source\PSoC4/BLE_tps.c **** *******************************************************************************
 492:.\Generated_Source\PSoC4/BLE_tps.c **** 
 493:.\Generated_Source\PSoC4/BLE_tps.c **** Summary:
 494:.\Generated_Source\PSoC4/BLE_tps.c ****  Handles the Read Response Event.
 495:.\Generated_Source\PSoC4/BLE_tps.c **** 
 496:.\Generated_Source\PSoC4/BLE_tps.c **** Parameters:
 497:.\Generated_Source\PSoC4/BLE_tps.c ****  CYBLE_GATTC_READ_RSP_PARAM_T *eventParam: The pointer to the data that came 
 498:.\Generated_Source\PSoC4/BLE_tps.c ****                                             with a read response for the Tx 
 499:.\Generated_Source\PSoC4/BLE_tps.c ****                                             Power Service.
 500:.\Generated_Source\PSoC4/BLE_tps.c **** 
 501:.\Generated_Source\PSoC4/BLE_tps.c **** Return:
 502:.\Generated_Source\PSoC4/BLE_tps.c ****  None
 503:.\Generated_Source\PSoC4/BLE_tps.c **** 
 504:.\Generated_Source\PSoC4/BLE_tps.c **** ******************************************************************************/
 505:.\Generated_Source\PSoC4/BLE_tps.c **** void CyBle_TpscReadResponseEventHandler(CYBLE_GATTC_READ_RSP_PARAM_T* eventParam)
 506:.\Generated_Source\PSoC4/BLE_tps.c **** {
 325              		.loc 1 506 0
 326              		.cfi_startproc
 327 0000 80B5     		push	{r7, lr}
 328              		.cfi_def_cfa_offset 8
 329              		.cfi_offset 7, -8
 330              		.cfi_offset 14, -4
 331 0002 86B0     		sub	sp, sp, #24
 332              		.cfi_def_cfa_offset 32
 333 0004 00AF     		add	r7, sp, #0
 334              		.cfi_def_cfa_register 7
 335 0006 7860     		str	r0, [r7, #4]
 507:.\Generated_Source\PSoC4/BLE_tps.c ****     if((NULL != CyBle_TpsApplCallback) && (CYBLE_GATT_INVALID_ATTR_HANDLE_VALUE != cyBle_tpscReqHan
 336              		.loc 1 507 0
 337 0008 304B     		ldr	r3, .L24
 338 000a 1B68     		ldr	r3, [r3]
 339 000c 002B     		cmp	r3, #0
 340 000e 59D0     		beq	.L21
 341              		.loc 1 507 0 is_stmt 0 discriminator 1
 342 0010 2F4B     		ldr	r3, .L24+4
 343 0012 1B88     		ldrh	r3, [r3]
 344 0014 002B     		cmp	r3, #0
 345 0016 55D0     		beq	.L21
 508:.\Generated_Source\PSoC4/BLE_tps.c ****     {
 509:.\Generated_Source\PSoC4/BLE_tps.c ****         if(cyBle_tpsc.txPowerLevelChar.valueHandle == cyBle_tpscReqHandle)
 346              		.loc 1 509 0 is_stmt 1
ARM GAS  C:\Users\MANISH~1\AppData\Local\Temp\cc31JF4v.s 			page 16


 347 0018 2E4B     		ldr	r3, .L24+8
 348 001a 5A88     		ldrh	r2, [r3, #2]
 349 001c 2C4B     		ldr	r3, .L24+4
 350 001e 1B88     		ldrh	r3, [r3]
 351 0020 9A42     		cmp	r2, r3
 352 0022 22D1     		bne	.L23
 353              	.LBB3:
 510:.\Generated_Source\PSoC4/BLE_tps.c ****         {
 511:.\Generated_Source\PSoC4/BLE_tps.c ****             CYBLE_TPS_CHAR_VALUE_T rdRspParam;
 512:.\Generated_Source\PSoC4/BLE_tps.c ****             
 513:.\Generated_Source\PSoC4/BLE_tps.c ****             /* Fill Tx Power Service read response parameter structure for Tx Power Level
 514:.\Generated_Source\PSoC4/BLE_tps.c ****               Characteristic. */
 515:.\Generated_Source\PSoC4/BLE_tps.c ****             rdRspParam.connHandle = eventParam->connHandle;
 354              		.loc 1 515 0
 355 0024 3B1C     		mov	r3, r7
 356 0026 1033     		add	r3, r3, #16
 357 0028 7A68     		ldr	r2, [r7, #4]
 358 002a 1288     		ldrh	r2, [r2]
 359 002c 1A80     		strh	r2, [r3]
 516:.\Generated_Source\PSoC4/BLE_tps.c ****             rdRspParam.charIndex = CYBLE_TPS_TX_POWER_LEVEL;
 360              		.loc 1 516 0
 361 002e 3B1C     		mov	r3, r7
 362 0030 1033     		add	r3, r3, #16
 363 0032 0022     		mov	r2, #0
 364 0034 9A70     		strb	r2, [r3, #2]
 517:.\Generated_Source\PSoC4/BLE_tps.c ****             rdRspParam.value = &eventParam->value;
 365              		.loc 1 517 0
 366 0036 7B68     		ldr	r3, [r7, #4]
 367 0038 1A1D     		add	r2, r3, #4
 368 003a 3B1C     		mov	r3, r7
 369 003c 1033     		add	r3, r3, #16
 370 003e 5A60     		str	r2, [r3, #4]
 518:.\Generated_Source\PSoC4/BLE_tps.c ****             
 519:.\Generated_Source\PSoC4/BLE_tps.c ****             cyBle_tpscReqHandle = CYBLE_GATT_INVALID_ATTR_HANDLE_VALUE;
 371              		.loc 1 519 0
 372 0040 234B     		ldr	r3, .L24+4
 373 0042 0022     		mov	r2, #0
 374 0044 1A80     		strh	r2, [r3]
 520:.\Generated_Source\PSoC4/BLE_tps.c ****             cyBle_eventHandlerFlag &= (uint8) ~CYBLE_CALLBACK;
 375              		.loc 1 520 0
 376 0046 244B     		ldr	r3, .L24+12
 377 0048 1B78     		ldrb	r3, [r3]
 378 004a DBB2     		uxtb	r3, r3
 379 004c 0122     		mov	r2, #1
 380 004e 9343     		bic	r3, r2
 381 0050 DAB2     		uxtb	r2, r3
 382 0052 214B     		ldr	r3, .L24+12
 383 0054 1A70     		strb	r2, [r3]
 521:.\Generated_Source\PSoC4/BLE_tps.c ****             CyBle_TpsApplCallback(CYBLE_EVT_TPSC_READ_CHAR_RESPONSE, &rdRspParam);
 384              		.loc 1 521 0
 385 0056 1D4B     		ldr	r3, .L24
 386 0058 1B68     		ldr	r3, [r3]
 387 005a DA22     		mov	r2, #218
 388 005c 5100     		lsl	r1, r2, #1
 389 005e 3A1C     		mov	r2, r7
 390 0060 1032     		add	r2, r2, #16
 391 0062 081C     		mov	r0, r1
ARM GAS  C:\Users\MANISH~1\AppData\Local\Temp\cc31JF4v.s 			page 17


 392 0064 111C     		mov	r1, r2
 393 0066 9847     		blx	r3
 394              	.LBE3:
 395 0068 2CE0     		b	.L21
 396              	.L23:
 522:.\Generated_Source\PSoC4/BLE_tps.c ****         }
 523:.\Generated_Source\PSoC4/BLE_tps.c ****         else if(cyBle_tpsc.txPowerLevelCccdHandle == cyBle_tpscReqHandle)
 397              		.loc 1 523 0
 398 006a 1A4B     		ldr	r3, .L24+8
 399 006c 9A88     		ldrh	r2, [r3, #4]
 400 006e 184B     		ldr	r3, .L24+4
 401 0070 1B88     		ldrh	r3, [r3]
 402 0072 9A42     		cmp	r2, r3
 403 0074 26D1     		bne	.L21
 404              	.LBB4:
 524:.\Generated_Source\PSoC4/BLE_tps.c ****         {
 525:.\Generated_Source\PSoC4/BLE_tps.c ****             CYBLE_TPS_DESCR_VALUE_T rdRspParam;
 526:.\Generated_Source\PSoC4/BLE_tps.c ****             
 527:.\Generated_Source\PSoC4/BLE_tps.c ****             /* Fill Tx Power Service read response parameter structure for Tx Power Level
 528:.\Generated_Source\PSoC4/BLE_tps.c ****                 Client Characteristic Configuration Descriptor. */
 529:.\Generated_Source\PSoC4/BLE_tps.c ****             rdRspParam.connHandle = eventParam->connHandle;
 405              		.loc 1 529 0
 406 0076 3B1C     		mov	r3, r7
 407 0078 0833     		add	r3, r3, #8
 408 007a 7A68     		ldr	r2, [r7, #4]
 409 007c 1288     		ldrh	r2, [r2]
 410 007e 1A80     		strh	r2, [r3]
 530:.\Generated_Source\PSoC4/BLE_tps.c ****             rdRspParam.charIndex = CYBLE_TPS_TX_POWER_LEVEL;
 411              		.loc 1 530 0
 412 0080 3B1C     		mov	r3, r7
 413 0082 0833     		add	r3, r3, #8
 414 0084 0022     		mov	r2, #0
 415 0086 9A70     		strb	r2, [r3, #2]
 531:.\Generated_Source\PSoC4/BLE_tps.c ****             rdRspParam.descrIndex = CYBLE_TPS_CCCD;
 416              		.loc 1 531 0
 417 0088 3B1C     		mov	r3, r7
 418 008a 0833     		add	r3, r3, #8
 419 008c 0022     		mov	r2, #0
 420 008e DA70     		strb	r2, [r3, #3]
 532:.\Generated_Source\PSoC4/BLE_tps.c ****             rdRspParam.value = &eventParam->value;
 421              		.loc 1 532 0
 422 0090 7B68     		ldr	r3, [r7, #4]
 423 0092 1A1D     		add	r2, r3, #4
 424 0094 3B1C     		mov	r3, r7
 425 0096 0833     		add	r3, r3, #8
 426 0098 5A60     		str	r2, [r3, #4]
 533:.\Generated_Source\PSoC4/BLE_tps.c ****             
 534:.\Generated_Source\PSoC4/BLE_tps.c ****             cyBle_tpscReqHandle = CYBLE_GATT_INVALID_ATTR_HANDLE_VALUE;
 427              		.loc 1 534 0
 428 009a 0D4B     		ldr	r3, .L24+4
 429 009c 0022     		mov	r2, #0
 430 009e 1A80     		strh	r2, [r3]
 535:.\Generated_Source\PSoC4/BLE_tps.c ****             cyBle_eventHandlerFlag &= (uint8) ~CYBLE_CALLBACK;
 431              		.loc 1 535 0
 432 00a0 0D4B     		ldr	r3, .L24+12
 433 00a2 1B78     		ldrb	r3, [r3]
 434 00a4 DBB2     		uxtb	r3, r3
ARM GAS  C:\Users\MANISH~1\AppData\Local\Temp\cc31JF4v.s 			page 18


 435 00a6 0122     		mov	r2, #1
 436 00a8 9343     		bic	r3, r2
 437 00aa DAB2     		uxtb	r2, r3
 438 00ac 0A4B     		ldr	r3, .L24+12
 439 00ae 1A70     		strb	r2, [r3]
 536:.\Generated_Source\PSoC4/BLE_tps.c ****             CyBle_TpsApplCallback(CYBLE_EVT_TPSC_READ_DESCR_RESPONSE, &rdRspParam);
 440              		.loc 1 536 0
 441 00b0 064B     		ldr	r3, .L24
 442 00b2 1B68     		ldr	r3, [r3]
 443 00b4 B622     		mov	r2, #182
 444 00b6 111C     		mov	r1, r2
 445 00b8 FF31     		add	r1, r1, #255
 446 00ba 3A1C     		mov	r2, r7
 447 00bc 0832     		add	r2, r2, #8
 448 00be 081C     		mov	r0, r1
 449 00c0 111C     		mov	r1, r2
 450 00c2 9847     		blx	r3
 451              	.L21:
 452              	.LBE4:
 537:.\Generated_Source\PSoC4/BLE_tps.c ****         }
 538:.\Generated_Source\PSoC4/BLE_tps.c ****         else
 539:.\Generated_Source\PSoC4/BLE_tps.c ****         {
 540:.\Generated_Source\PSoC4/BLE_tps.c ****             /* No TPS characteristic was requested for read */
 541:.\Generated_Source\PSoC4/BLE_tps.c ****         }
 542:.\Generated_Source\PSoC4/BLE_tps.c ****     }
 543:.\Generated_Source\PSoC4/BLE_tps.c **** }
 453              		.loc 1 543 0
 454 00c4 BD46     		mov	sp, r7
 455 00c6 06B0     		add	sp, sp, #24
 456              		@ sp needed
 457 00c8 80BD     		pop	{r7, pc}
 458              	.L25:
 459 00ca C046     		.align	2
 460              	.L24:
 461 00cc 00000000 		.word	CyBle_TpsApplCallback
 462 00d0 04000000 		.word	cyBle_tpscReqHandle
 463 00d4 00000000 		.word	cyBle_tpsc
 464 00d8 00000000 		.word	cyBle_eventHandlerFlag
 465              		.cfi_endproc
 466              	.LFE7:
 467              		.size	CyBle_TpscReadResponseEventHandler, .-CyBle_TpscReadResponseEventHandler
 468              		.section	.text.CyBle_TpscWriteResponseEventHandler,"ax",%progbits
 469              		.align	2
 470              		.global	CyBle_TpscWriteResponseEventHandler
 471              		.code	16
 472              		.thumb_func
 473              		.type	CyBle_TpscWriteResponseEventHandler, %function
 474              	CyBle_TpscWriteResponseEventHandler:
 475              	.LFB8:
 544:.\Generated_Source\PSoC4/BLE_tps.c **** 
 545:.\Generated_Source\PSoC4/BLE_tps.c **** 
 546:.\Generated_Source\PSoC4/BLE_tps.c **** /******************************************************************************
 547:.\Generated_Source\PSoC4/BLE_tps.c **** ##Function Name: CyBle_TpscWriteResponseEventHandler
 548:.\Generated_Source\PSoC4/BLE_tps.c **** *******************************************************************************
 549:.\Generated_Source\PSoC4/BLE_tps.c **** 
 550:.\Generated_Source\PSoC4/BLE_tps.c **** Summary:
 551:.\Generated_Source\PSoC4/BLE_tps.c ****  Handles the Write Response Event.
ARM GAS  C:\Users\MANISH~1\AppData\Local\Temp\cc31JF4v.s 			page 19


 552:.\Generated_Source\PSoC4/BLE_tps.c **** 
 553:.\Generated_Source\PSoC4/BLE_tps.c **** Parameters:
 554:.\Generated_Source\PSoC4/BLE_tps.c ****  CYBLE_CONN_HANDLE_T *eventParam: The pointer to a CYBLE_CONN_HANDLE_T data structure.
 555:.\Generated_Source\PSoC4/BLE_tps.c **** 
 556:.\Generated_Source\PSoC4/BLE_tps.c **** Return:
 557:.\Generated_Source\PSoC4/BLE_tps.c ****  None
 558:.\Generated_Source\PSoC4/BLE_tps.c **** 
 559:.\Generated_Source\PSoC4/BLE_tps.c **** ******************************************************************************/
 560:.\Generated_Source\PSoC4/BLE_tps.c **** void CyBle_TpscWriteResponseEventHandler(const CYBLE_CONN_HANDLE_T *eventParam)
 561:.\Generated_Source\PSoC4/BLE_tps.c **** {
 476              		.loc 1 561 0
 477              		.cfi_startproc
 478 0000 80B5     		push	{r7, lr}
 479              		.cfi_def_cfa_offset 8
 480              		.cfi_offset 7, -8
 481              		.cfi_offset 14, -4
 482 0002 84B0     		sub	sp, sp, #16
 483              		.cfi_def_cfa_offset 24
 484 0004 00AF     		add	r7, sp, #0
 485              		.cfi_def_cfa_register 7
 486 0006 7860     		str	r0, [r7, #4]
 562:.\Generated_Source\PSoC4/BLE_tps.c ****     CYBLE_TPS_DESCR_VALUE_T wrRspParam;
 563:.\Generated_Source\PSoC4/BLE_tps.c **** 
 564:.\Generated_Source\PSoC4/BLE_tps.c ****     if((NULL != CyBle_TpsApplCallback) && (cyBle_tpsc.txPowerLevelCccdHandle == cyBle_tpscReqHandle
 487              		.loc 1 564 0
 488 0008 1D4B     		ldr	r3, .L28
 489 000a 1B68     		ldr	r3, [r3]
 490 000c 002B     		cmp	r3, #0
 491 000e 34D0     		beq	.L26
 492              		.loc 1 564 0 is_stmt 0 discriminator 1
 493 0010 1C4B     		ldr	r3, .L28+4
 494 0012 9A88     		ldrh	r2, [r3, #4]
 495 0014 1C4B     		ldr	r3, .L28+8
 496 0016 1B88     		ldrh	r3, [r3]
 497 0018 9A42     		cmp	r2, r3
 498 001a 2ED1     		bne	.L26
 565:.\Generated_Source\PSoC4/BLE_tps.c ****         (CYBLE_GATT_INVALID_ATTR_HANDLE_VALUE != cyBle_tpscReqHandle))
 499              		.loc 1 565 0 is_stmt 1 discriminator 1
 500 001c 1A4B     		ldr	r3, .L28+8
 501 001e 1B88     		ldrh	r3, [r3]
 564:.\Generated_Source\PSoC4/BLE_tps.c ****     if((NULL != CyBle_TpsApplCallback) && (cyBle_tpsc.txPowerLevelCccdHandle == cyBle_tpscReqHandle
 502              		.loc 1 564 0 discriminator 1
 503 0020 002B     		cmp	r3, #0
 504 0022 2AD0     		beq	.L26
 566:.\Generated_Source\PSoC4/BLE_tps.c ****     {
 567:.\Generated_Source\PSoC4/BLE_tps.c ****         wrRspParam.connHandle = *eventParam;
 505              		.loc 1 567 0
 506 0024 3A1C     		mov	r2, r7
 507 0026 0832     		add	r2, r2, #8
 508 0028 7B68     		ldr	r3, [r7, #4]
 509 002a 111C     		mov	r1, r2
 510 002c 1A1C     		mov	r2, r3
 511 002e 0223     		mov	r3, #2
 512 0030 081C     		mov	r0, r1
 513 0032 111C     		mov	r1, r2
 514 0034 1A1C     		mov	r2, r3
 515 0036 FFF7FEFF 		bl	memcpy
ARM GAS  C:\Users\MANISH~1\AppData\Local\Temp\cc31JF4v.s 			page 20


 568:.\Generated_Source\PSoC4/BLE_tps.c ****         wrRspParam.charIndex = CYBLE_TPS_TX_POWER_LEVEL;
 516              		.loc 1 568 0
 517 003a 3B1C     		mov	r3, r7
 518 003c 0833     		add	r3, r3, #8
 519 003e 0022     		mov	r2, #0
 520 0040 9A70     		strb	r2, [r3, #2]
 569:.\Generated_Source\PSoC4/BLE_tps.c ****         wrRspParam.descrIndex = CYBLE_TPS_CCCD;
 521              		.loc 1 569 0
 522 0042 3B1C     		mov	r3, r7
 523 0044 0833     		add	r3, r3, #8
 524 0046 0022     		mov	r2, #0
 525 0048 DA70     		strb	r2, [r3, #3]
 570:.\Generated_Source\PSoC4/BLE_tps.c ****         wrRspParam.value = NULL;
 526              		.loc 1 570 0
 527 004a 3B1C     		mov	r3, r7
 528 004c 0833     		add	r3, r3, #8
 529 004e 0022     		mov	r2, #0
 530 0050 5A60     		str	r2, [r3, #4]
 571:.\Generated_Source\PSoC4/BLE_tps.c ****         
 572:.\Generated_Source\PSoC4/BLE_tps.c ****         cyBle_tpscReqHandle = CYBLE_GATT_INVALID_ATTR_HANDLE_VALUE;
 531              		.loc 1 572 0
 532 0052 0D4B     		ldr	r3, .L28+8
 533 0054 0022     		mov	r2, #0
 534 0056 1A80     		strh	r2, [r3]
 573:.\Generated_Source\PSoC4/BLE_tps.c ****         cyBle_eventHandlerFlag &= (uint8) ~CYBLE_CALLBACK;
 535              		.loc 1 573 0
 536 0058 0C4B     		ldr	r3, .L28+12
 537 005a 1B78     		ldrb	r3, [r3]
 538 005c DBB2     		uxtb	r3, r3
 539 005e 0122     		mov	r2, #1
 540 0060 9343     		bic	r3, r2
 541 0062 DAB2     		uxtb	r2, r3
 542 0064 094B     		ldr	r3, .L28+12
 543 0066 1A70     		strb	r2, [r3]
 574:.\Generated_Source\PSoC4/BLE_tps.c ****         CyBle_TpsApplCallback(CYBLE_EVT_TPSC_WRITE_DESCR_RESPONSE, &wrRspParam);
 544              		.loc 1 574 0
 545 0068 054B     		ldr	r3, .L28
 546 006a 1B68     		ldr	r3, [r3]
 547 006c DB22     		mov	r2, #219
 548 006e 5100     		lsl	r1, r2, #1
 549 0070 3A1C     		mov	r2, r7
 550 0072 0832     		add	r2, r2, #8
 551 0074 081C     		mov	r0, r1
 552 0076 111C     		mov	r1, r2
 553 0078 9847     		blx	r3
 554              	.L26:
 575:.\Generated_Source\PSoC4/BLE_tps.c ****     }
 576:.\Generated_Source\PSoC4/BLE_tps.c **** }
 555              		.loc 1 576 0
 556 007a BD46     		mov	sp, r7
 557 007c 04B0     		add	sp, sp, #16
 558              		@ sp needed
 559 007e 80BD     		pop	{r7, pc}
 560              	.L29:
 561              		.align	2
 562              	.L28:
 563 0080 00000000 		.word	CyBle_TpsApplCallback
ARM GAS  C:\Users\MANISH~1\AppData\Local\Temp\cc31JF4v.s 			page 21


 564 0084 00000000 		.word	cyBle_tpsc
 565 0088 04000000 		.word	cyBle_tpscReqHandle
 566 008c 00000000 		.word	cyBle_eventHandlerFlag
 567              		.cfi_endproc
 568              	.LFE8:
 569              		.size	CyBle_TpscWriteResponseEventHandler, .-CyBle_TpscWriteResponseEventHandler
 570              		.section	.text.CyBle_TpscErrorResponseEventHandler,"ax",%progbits
 571              		.align	2
 572              		.global	CyBle_TpscErrorResponseEventHandler
 573              		.code	16
 574              		.thumb_func
 575              		.type	CyBle_TpscErrorResponseEventHandler, %function
 576              	CyBle_TpscErrorResponseEventHandler:
 577              	.LFB9:
 577:.\Generated_Source\PSoC4/BLE_tps.c **** 
 578:.\Generated_Source\PSoC4/BLE_tps.c **** 
 579:.\Generated_Source\PSoC4/BLE_tps.c **** /******************************************************************************
 580:.\Generated_Source\PSoC4/BLE_tps.c **** ##Function Name: CyBle_TpscErrorResponseEventHandler
 581:.\Generated_Source\PSoC4/BLE_tps.c **** *******************************************************************************
 582:.\Generated_Source\PSoC4/BLE_tps.c **** 
 583:.\Generated_Source\PSoC4/BLE_tps.c **** Summary:
 584:.\Generated_Source\PSoC4/BLE_tps.c ****  Handles the Error Response Event for the Tx Power Service.
 585:.\Generated_Source\PSoC4/BLE_tps.c **** 
 586:.\Generated_Source\PSoC4/BLE_tps.c **** Parameters:
 587:.\Generated_Source\PSoC4/BLE_tps.c ****  CYBLE_GATTC_ERR_RSP_PARAM_T *eventParam: The pointer to the 
 588:.\Generated_Source\PSoC4/BLE_tps.c ****                                            CYBLE_GATTC_ERR_RSP_PARAM_T structure.
 589:.\Generated_Source\PSoC4/BLE_tps.c **** 
 590:.\Generated_Source\PSoC4/BLE_tps.c **** Return:
 591:.\Generated_Source\PSoC4/BLE_tps.c ****  None
 592:.\Generated_Source\PSoC4/BLE_tps.c **** 
 593:.\Generated_Source\PSoC4/BLE_tps.c **** ******************************************************************************/
 594:.\Generated_Source\PSoC4/BLE_tps.c **** void CyBle_TpscErrorResponseEventHandler(const CYBLE_GATTC_ERR_RSP_PARAM_T *eventParam)
 595:.\Generated_Source\PSoC4/BLE_tps.c **** {
 578              		.loc 1 595 0
 579              		.cfi_startproc
 580 0000 80B5     		push	{r7, lr}
 581              		.cfi_def_cfa_offset 8
 582              		.cfi_offset 7, -8
 583              		.cfi_offset 14, -4
 584 0002 82B0     		sub	sp, sp, #8
 585              		.cfi_def_cfa_offset 16
 586 0004 00AF     		add	r7, sp, #0
 587              		.cfi_def_cfa_register 7
 588 0006 7860     		str	r0, [r7, #4]
 596:.\Generated_Source\PSoC4/BLE_tps.c ****     if(eventParam->attrHandle != cyBle_tpscReqHandle)
 589              		.loc 1 596 0
 590 0008 7B68     		ldr	r3, [r7, #4]
 591 000a 9A88     		ldrh	r2, [r3, #4]
 592 000c 044B     		ldr	r3, .L32
 593 000e 1B88     		ldrh	r3, [r3]
 594 0010 9A42     		cmp	r2, r3
 595 0012 02D0     		beq	.L30
 597:.\Generated_Source\PSoC4/BLE_tps.c ****     {
 598:.\Generated_Source\PSoC4/BLE_tps.c ****         cyBle_tpscReqHandle = CYBLE_GATT_INVALID_ATTR_HANDLE_VALUE;
 596              		.loc 1 598 0
 597 0014 024B     		ldr	r3, .L32
 598 0016 0022     		mov	r2, #0
ARM GAS  C:\Users\MANISH~1\AppData\Local\Temp\cc31JF4v.s 			page 22


 599 0018 1A80     		strh	r2, [r3]
 600              	.L30:
 599:.\Generated_Source\PSoC4/BLE_tps.c ****     }
 600:.\Generated_Source\PSoC4/BLE_tps.c **** }
 601              		.loc 1 600 0
 602 001a BD46     		mov	sp, r7
 603 001c 02B0     		add	sp, sp, #8
 604              		@ sp needed
 605 001e 80BD     		pop	{r7, pc}
 606              	.L33:
 607              		.align	2
 608              	.L32:
 609 0020 04000000 		.word	cyBle_tpscReqHandle
 610              		.cfi_endproc
 611              	.LFE9:
 612              		.size	CyBle_TpscErrorResponseEventHandler, .-CyBle_TpscErrorResponseEventHandler
 613              		.section	.text.CyBle_TpscGetCharacteristicValue,"ax",%progbits
 614              		.align	2
 615              		.global	CyBle_TpscGetCharacteristicValue
 616              		.code	16
 617              		.thumb_func
 618              		.type	CyBle_TpscGetCharacteristicValue, %function
 619              	CyBle_TpscGetCharacteristicValue:
 620              	.LFB10:
 601:.\Generated_Source\PSoC4/BLE_tps.c **** 
 602:.\Generated_Source\PSoC4/BLE_tps.c **** 
 603:.\Generated_Source\PSoC4/BLE_tps.c **** /******************************************************************************
 604:.\Generated_Source\PSoC4/BLE_tps.c **** ##Function Name: CyBle_TpscGetCharacteristicValue
 605:.\Generated_Source\PSoC4/BLE_tps.c **** *******************************************************************************
 606:.\Generated_Source\PSoC4/BLE_tps.c **** 
 607:.\Generated_Source\PSoC4/BLE_tps.c **** Summary:
 608:.\Generated_Source\PSoC4/BLE_tps.c ****  Gets the characteristic value of the Tx Power Service, which is 
 609:.\Generated_Source\PSoC4/BLE_tps.c ****  identified by charIndex.
 610:.\Generated_Source\PSoC4/BLE_tps.c **** 
 611:.\Generated_Source\PSoC4/BLE_tps.c ****  This function call can result in generation of the following events based on
 612:.\Generated_Source\PSoC4/BLE_tps.c ****  the response from the server device:
 613:.\Generated_Source\PSoC4/BLE_tps.c ****  * CYBLE_EVT_TPSC_READ_CHAR_RESPONSE
 614:.\Generated_Source\PSoC4/BLE_tps.c ****  * CYBLE_EVT_GATTC_ERROR_RSP
 615:.\Generated_Source\PSoC4/BLE_tps.c **** 
 616:.\Generated_Source\PSoC4/BLE_tps.c **** Parameters:
 617:.\Generated_Source\PSoC4/BLE_tps.c ****  connHandle: The connection handle.
 618:.\Generated_Source\PSoC4/BLE_tps.c ****  charIndex: The index of the characteristic.
 619:.\Generated_Source\PSoC4/BLE_tps.c **** 
 620:.\Generated_Source\PSoC4/BLE_tps.c **** Return:
 621:.\Generated_Source\PSoC4/BLE_tps.c ****  Return value is of type CYBLE_API_RESULT_T.
 622:.\Generated_Source\PSoC4/BLE_tps.c ****   * CYBLE_ERROR_OK - Request was sent successfully
 623:.\Generated_Source\PSoC4/BLE_tps.c ****   * CYBLE_ERROR_INVALID_PARAMETER - Validation of the input parameters failed
 624:.\Generated_Source\PSoC4/BLE_tps.c ****   * CYBLE_ERROR_INVALID_STATE - Connection with the server is not established
 625:.\Generated_Source\PSoC4/BLE_tps.c ****   * CYBLE_ERROR_MEMORY_ALLOCATION_FAILED - Memory allocation failed
 626:.\Generated_Source\PSoC4/BLE_tps.c ****   * CYBLE_ERROR_INVALID_OPERATION - Operation is invalid for this 
 627:.\Generated_Source\PSoC4/BLE_tps.c ****                                     characteristic
 628:.\Generated_Source\PSoC4/BLE_tps.c **** 
 629:.\Generated_Source\PSoC4/BLE_tps.c **** ******************************************************************************/
 630:.\Generated_Source\PSoC4/BLE_tps.c **** CYBLE_API_RESULT_T CyBle_TpscGetCharacteristicValue(CYBLE_CONN_HANDLE_T connHandle,
 631:.\Generated_Source\PSoC4/BLE_tps.c ****                                                     CYBLE_TPS_CHAR_INDEX_T charIndex)
 632:.\Generated_Source\PSoC4/BLE_tps.c **** {
 621              		.loc 1 632 0
ARM GAS  C:\Users\MANISH~1\AppData\Local\Temp\cc31JF4v.s 			page 23


 622              		.cfi_startproc
 623 0000 90B5     		push	{r4, r7, lr}
 624              		.cfi_def_cfa_offset 12
 625              		.cfi_offset 4, -12
 626              		.cfi_offset 7, -8
 627              		.cfi_offset 14, -4
 628 0002 85B0     		sub	sp, sp, #20
 629              		.cfi_def_cfa_offset 32
 630 0004 00AF     		add	r7, sp, #0
 631              		.cfi_def_cfa_register 7
 632 0006 3B1D     		add	r3, r7, #4
 633 0008 1880     		strh	r0, [r3]
 634 000a 0A1C     		mov	r2, r1
 635 000c FB1C     		add	r3, r7, #3
 636 000e 1A70     		strb	r2, [r3]
 633:.\Generated_Source\PSoC4/BLE_tps.c ****     CYBLE_API_RESULT_T apiResult = CYBLE_ERROR_INVALID_PARAMETER;
 637              		.loc 1 633 0
 638 0010 3B1C     		mov	r3, r7
 639 0012 0E33     		add	r3, r3, #14
 640 0014 0122     		mov	r2, #1
 641 0016 1A80     		strh	r2, [r3]
 634:.\Generated_Source\PSoC4/BLE_tps.c **** 
 635:.\Generated_Source\PSoC4/BLE_tps.c ****     if(CYBLE_CLIENT_STATE_DISCOVERED != CyBle_GetClientState())
 642              		.loc 1 635 0
 643 0018 134B     		ldr	r3, .L39
 644 001a 1B78     		ldrb	r3, [r3]
 645 001c 052B     		cmp	r3, #5
 646 001e 04D0     		beq	.L35
 636:.\Generated_Source\PSoC4/BLE_tps.c ****     {
 637:.\Generated_Source\PSoC4/BLE_tps.c ****         apiResult = CYBLE_ERROR_INVALID_STATE;
 647              		.loc 1 637 0
 648 0020 3B1C     		mov	r3, r7
 649 0022 0E33     		add	r3, r3, #14
 650 0024 8322     		mov	r2, #131
 651 0026 5200     		lsl	r2, r2, #1
 652 0028 1A80     		strh	r2, [r3]
 653              	.L35:
 638:.\Generated_Source\PSoC4/BLE_tps.c ****     }
 639:.\Generated_Source\PSoC4/BLE_tps.c ****     if((CYBLE_TPS_TX_POWER_LEVEL == charIndex))
 654              		.loc 1 639 0
 655 002a FB1C     		add	r3, r7, #3
 656 002c 1B78     		ldrb	r3, [r3]
 657 002e 002B     		cmp	r3, #0
 658 0030 13D1     		bne	.L36
 640:.\Generated_Source\PSoC4/BLE_tps.c ****     {
 641:.\Generated_Source\PSoC4/BLE_tps.c ****         /* Send request to write Tx Power Level characteristic value */
 642:.\Generated_Source\PSoC4/BLE_tps.c ****         apiResult = CyBle_GattcReadCharacteristicValue(connHandle, cyBle_tpsc.txPowerLevelChar.valu
 659              		.loc 1 642 0
 660 0032 0E4B     		ldr	r3, .L39+4
 661 0034 5A88     		ldrh	r2, [r3, #2]
 662 0036 3C1C     		mov	r4, r7
 663 0038 0E34     		add	r4, r4, #14
 664 003a 3B1D     		add	r3, r7, #4
 665 003c 1868     		ldr	r0, [r3]
 666 003e 111C     		mov	r1, r2
 667 0040 FFF7FEFF 		bl	CyBle_GattcReadCharacteristicValue
 668 0044 031C     		mov	r3, r0
ARM GAS  C:\Users\MANISH~1\AppData\Local\Temp\cc31JF4v.s 			page 24


 669 0046 2380     		strh	r3, [r4]
 643:.\Generated_Source\PSoC4/BLE_tps.c ****         
 644:.\Generated_Source\PSoC4/BLE_tps.c ****         if(CYBLE_ERROR_OK == apiResult)
 670              		.loc 1 644 0
 671 0048 3B1C     		mov	r3, r7
 672 004a 0E33     		add	r3, r3, #14
 673 004c 1B88     		ldrh	r3, [r3]
 674 004e 002B     		cmp	r3, #0
 675 0050 03D1     		bne	.L36
 645:.\Generated_Source\PSoC4/BLE_tps.c ****         {
 646:.\Generated_Source\PSoC4/BLE_tps.c ****              cyBle_tpscReqHandle = cyBle_tpsc.txPowerLevelChar.valueHandle;
 676              		.loc 1 646 0
 677 0052 064B     		ldr	r3, .L39+4
 678 0054 5A88     		ldrh	r2, [r3, #2]
 679 0056 064B     		ldr	r3, .L39+8
 680 0058 1A80     		strh	r2, [r3]
 681              	.L36:
 647:.\Generated_Source\PSoC4/BLE_tps.c ****         }
 648:.\Generated_Source\PSoC4/BLE_tps.c ****     }
 649:.\Generated_Source\PSoC4/BLE_tps.c ****     else
 650:.\Generated_Source\PSoC4/BLE_tps.c ****     {
 651:.\Generated_Source\PSoC4/BLE_tps.c ****         /* apiResult equals CYBLE_ERROR_INVALID_PARAMETER */
 652:.\Generated_Source\PSoC4/BLE_tps.c ****     }
 653:.\Generated_Source\PSoC4/BLE_tps.c ****     
 654:.\Generated_Source\PSoC4/BLE_tps.c ****     /* Return status */
 655:.\Generated_Source\PSoC4/BLE_tps.c ****     return(apiResult);
 682              		.loc 1 655 0
 683 005a 3B1C     		mov	r3, r7
 684 005c 0E33     		add	r3, r3, #14
 685 005e 1B88     		ldrh	r3, [r3]
 656:.\Generated_Source\PSoC4/BLE_tps.c **** }
 686              		.loc 1 656 0
 687 0060 181C     		mov	r0, r3
 688 0062 BD46     		mov	sp, r7
 689 0064 05B0     		add	sp, sp, #20
 690              		@ sp needed
 691 0066 90BD     		pop	{r4, r7, pc}
 692              	.L40:
 693              		.align	2
 694              	.L39:
 695 0068 00000000 		.word	cyBle_clientState
 696 006c 00000000 		.word	cyBle_tpsc
 697 0070 04000000 		.word	cyBle_tpscReqHandle
 698              		.cfi_endproc
 699              	.LFE10:
 700              		.size	CyBle_TpscGetCharacteristicValue, .-CyBle_TpscGetCharacteristicValue
 701              		.section	.text.CyBle_TpscSetCharacteristicDescriptor,"ax",%progbits
 702              		.align	2
 703              		.global	CyBle_TpscSetCharacteristicDescriptor
 704              		.code	16
 705              		.thumb_func
 706              		.type	CyBle_TpscSetCharacteristicDescriptor, %function
 707              	CyBle_TpscSetCharacteristicDescriptor:
 708              	.LFB11:
 657:.\Generated_Source\PSoC4/BLE_tps.c **** 
 658:.\Generated_Source\PSoC4/BLE_tps.c **** 
 659:.\Generated_Source\PSoC4/BLE_tps.c **** /******************************************************************************
ARM GAS  C:\Users\MANISH~1\AppData\Local\Temp\cc31JF4v.s 			page 25


 660:.\Generated_Source\PSoC4/BLE_tps.c **** ##Function Name: CyBle_TpscSetCharacteristicDescriptor
 661:.\Generated_Source\PSoC4/BLE_tps.c **** *******************************************************************************
 662:.\Generated_Source\PSoC4/BLE_tps.c **** 
 663:.\Generated_Source\PSoC4/BLE_tps.c **** Summary:
 664:.\Generated_Source\PSoC4/BLE_tps.c ****  Sets a characteristic descriptor value of the Tx Power Service.
 665:.\Generated_Source\PSoC4/BLE_tps.c **** 
 666:.\Generated_Source\PSoC4/BLE_tps.c ****  This function call can result in generation of the following events based 
 667:.\Generated_Source\PSoC4/BLE_tps.c ****  on the response from the server device:
 668:.\Generated_Source\PSoC4/BLE_tps.c ****  * CYBLE_EVT_TPSC_WRITE_DESCR_RESPONSE
 669:.\Generated_Source\PSoC4/BLE_tps.c ****  * CYBLE_EVT_GATTC_ERROR_RSP
 670:.\Generated_Source\PSoC4/BLE_tps.c **** 
 671:.\Generated_Source\PSoC4/BLE_tps.c ****  Following events can be received by the peer device, on invoking this function:
 672:.\Generated_Source\PSoC4/BLE_tps.c ****  * CYBLE_EVT_TPSS_NOTIFICATION_ENABLED
 673:.\Generated_Source\PSoC4/BLE_tps.c ****  * CYBLE_EVT_TPSS_NOTIFICATION_DISABLED
 674:.\Generated_Source\PSoC4/BLE_tps.c **** 
 675:.\Generated_Source\PSoC4/BLE_tps.c **** Parameters:
 676:.\Generated_Source\PSoC4/BLE_tps.c ****  connHandle: The connection handle.
 677:.\Generated_Source\PSoC4/BLE_tps.c ****  charIndex:  The index of the Characteristic
 678:.\Generated_Source\PSoC4/BLE_tps.c ****  descrIndex: The index of the TX Power Service characteristic descriptor.
 679:.\Generated_Source\PSoC4/BLE_tps.c ****  attrSize:   The size of the characteristic descriptor attribute.
 680:.\Generated_Source\PSoC4/BLE_tps.c ****  *attrValue: The pointer to the characteristic descriptor value data that 
 681:.\Generated_Source\PSoC4/BLE_tps.c ****              should be sent to the server device.
 682:.\Generated_Source\PSoC4/BLE_tps.c **** 
 683:.\Generated_Source\PSoC4/BLE_tps.c **** Return:
 684:.\Generated_Source\PSoC4/BLE_tps.c ****  Return value is of type CYBLE_API_RESULT_T.
 685:.\Generated_Source\PSoC4/BLE_tps.c ****   * CYBLE_ERROR_OK - The request was sent successfully.
 686:.\Generated_Source\PSoC4/BLE_tps.c ****   * CYBLE_ERROR_INVALID_PARAMETER - Validation of the input parameters failed.
 687:.\Generated_Source\PSoC4/BLE_tps.c ****   * CYBLE_ERROR_INVALID_STATE - Connection with the server is not established.
 688:.\Generated_Source\PSoC4/BLE_tps.c ****   * CYBLE_ERROR_INVALID_OPERATION - This operation is not permitted on the
 689:.\Generated_Source\PSoC4/BLE_tps.c ****                                      specified attribute.
 690:.\Generated_Source\PSoC4/BLE_tps.c ****   * CYBLE_ERROR_MEMORY_ALLOCATION_FAILED - Memory allocation failed.
 691:.\Generated_Source\PSoC4/BLE_tps.c **** 
 692:.\Generated_Source\PSoC4/BLE_tps.c **** ******************************************************************************/
 693:.\Generated_Source\PSoC4/BLE_tps.c **** CYBLE_API_RESULT_T CyBle_TpscSetCharacteristicDescriptor(CYBLE_CONN_HANDLE_T connHandle,
 694:.\Generated_Source\PSoC4/BLE_tps.c ****                                                          CYBLE_TPS_CHAR_INDEX_T charIndex,
 695:.\Generated_Source\PSoC4/BLE_tps.c ****                                                          CYBLE_TPS_CHAR_DESCRIPTORS_T descrIndex,
 696:.\Generated_Source\PSoC4/BLE_tps.c ****                                                          uint8 attrSize,
 697:.\Generated_Source\PSoC4/BLE_tps.c ****                                                          uint8 *attrValue)
 698:.\Generated_Source\PSoC4/BLE_tps.c **** {
 709              		.loc 1 698 0
 710              		.cfi_startproc
 711 0000 90B5     		push	{r4, r7, lr}
 712              		.cfi_def_cfa_offset 12
 713              		.cfi_offset 4, -12
 714              		.cfi_offset 7, -8
 715              		.cfi_offset 14, -4
 716 0002 87B0     		sub	sp, sp, #28
 717              		.cfi_def_cfa_offset 40
 718 0004 00AF     		add	r7, sp, #0
 719              		.cfi_def_cfa_register 7
 720 0006 3C1D     		add	r4, r7, #4
 721 0008 2080     		strh	r0, [r4]
 722 000a 081C     		mov	r0, r1
 723 000c 111C     		mov	r1, r2
 724 000e 1A1C     		mov	r2, r3
 725 0010 FB1C     		add	r3, r7, #3
 726 0012 1870     		strb	r0, [r3]
ARM GAS  C:\Users\MANISH~1\AppData\Local\Temp\cc31JF4v.s 			page 26


 727 0014 BB1C     		add	r3, r7, #2
 728 0016 1970     		strb	r1, [r3]
 729 0018 7B1C     		add	r3, r7, #1
 730 001a 1A70     		strb	r2, [r3]
 699:.\Generated_Source\PSoC4/BLE_tps.c ****     CYBLE_GATTC_WRITE_REQ_T writeReqParam;
 700:.\Generated_Source\PSoC4/BLE_tps.c ****     CYBLE_API_RESULT_T apiResult = CYBLE_ERROR_INVALID_PARAMETER;
 731              		.loc 1 700 0
 732 001c 3B1C     		mov	r3, r7
 733 001e 1633     		add	r3, r3, #22
 734 0020 0122     		mov	r2, #1
 735 0022 1A80     		strh	r2, [r3]
 701:.\Generated_Source\PSoC4/BLE_tps.c **** 
 702:.\Generated_Source\PSoC4/BLE_tps.c ****     if(CYBLE_CLIENT_STATE_DISCOVERED != CyBle_GetClientState())
 736              		.loc 1 702 0
 737 0024 204B     		ldr	r3, .L46
 738 0026 1B78     		ldrb	r3, [r3]
 739 0028 052B     		cmp	r3, #5
 740 002a 04D0     		beq	.L42
 703:.\Generated_Source\PSoC4/BLE_tps.c ****     {
 704:.\Generated_Source\PSoC4/BLE_tps.c ****         apiResult = CYBLE_ERROR_INVALID_STATE;
 741              		.loc 1 704 0
 742 002c 3B1C     		mov	r3, r7
 743 002e 1633     		add	r3, r3, #22
 744 0030 8322     		mov	r2, #131
 745 0032 5200     		lsl	r2, r2, #1
 746 0034 1A80     		strh	r2, [r3]
 747              	.L42:
 705:.\Generated_Source\PSoC4/BLE_tps.c ****     }
 706:.\Generated_Source\PSoC4/BLE_tps.c ****     if((NULL != attrValue) && (CYBLE_TPS_TX_POWER_LEVEL == charIndex) && (CYBLE_TPS_CCCD == descrIn
 748              		.loc 1 706 0
 749 0036 BB6A     		ldr	r3, [r7, #40]
 750 0038 002B     		cmp	r3, #0
 751 003a 2ED0     		beq	.L43
 752              		.loc 1 706 0 is_stmt 0 discriminator 1
 753 003c FB1C     		add	r3, r7, #3
 754 003e 1B78     		ldrb	r3, [r3]
 755 0040 002B     		cmp	r3, #0
 756 0042 2AD1     		bne	.L43
 757 0044 BB1C     		add	r3, r7, #2
 758 0046 1B78     		ldrb	r3, [r3]
 759 0048 002B     		cmp	r3, #0
 760 004a 26D1     		bne	.L43
 761 004c 7B1C     		add	r3, r7, #1
 762 004e 1B78     		ldrb	r3, [r3]
 763 0050 022B     		cmp	r3, #2
 764 0052 22D1     		bne	.L43
 707:.\Generated_Source\PSoC4/BLE_tps.c ****         (CYBLE_CCCD_LEN == attrSize))
 708:.\Generated_Source\PSoC4/BLE_tps.c ****     {
 709:.\Generated_Source\PSoC4/BLE_tps.c ****         /* Fill all fields of write request structure ... */
 710:.\Generated_Source\PSoC4/BLE_tps.c ****         writeReqParam.value.val = attrValue;
 765              		.loc 1 710 0 is_stmt 1
 766 0054 3B1C     		mov	r3, r7
 767 0056 0833     		add	r3, r3, #8
 768 0058 BA6A     		ldr	r2, [r7, #40]
 769 005a 1A60     		str	r2, [r3]
 711:.\Generated_Source\PSoC4/BLE_tps.c ****         writeReqParam.value.len = attrSize;
 770              		.loc 1 711 0
ARM GAS  C:\Users\MANISH~1\AppData\Local\Temp\cc31JF4v.s 			page 27


 771 005c 7B1C     		add	r3, r7, #1
 772 005e 1B78     		ldrb	r3, [r3]
 773 0060 9AB2     		uxth	r2, r3
 774 0062 3B1C     		mov	r3, r7
 775 0064 0833     		add	r3, r3, #8
 776 0066 9A80     		strh	r2, [r3, #4]
 712:.\Generated_Source\PSoC4/BLE_tps.c ****         writeReqParam.attrHandle = cyBle_tpsc.txPowerLevelCccdHandle;
 777              		.loc 1 712 0
 778 0068 104B     		ldr	r3, .L46+4
 779 006a 9A88     		ldrh	r2, [r3, #4]
 780 006c 3B1C     		mov	r3, r7
 781 006e 0833     		add	r3, r3, #8
 782 0070 1A81     		strh	r2, [r3, #8]
 713:.\Generated_Source\PSoC4/BLE_tps.c ****         
 714:.\Generated_Source\PSoC4/BLE_tps.c ****         /* ... and send request to server device. */        
 715:.\Generated_Source\PSoC4/BLE_tps.c ****         apiResult = CyBle_GattcWriteCharacteristicDescriptors(connHandle, &writeReqParam);
 783              		.loc 1 715 0
 784 0072 3C1C     		mov	r4, r7
 785 0074 1634     		add	r4, r4, #22
 786 0076 3B1D     		add	r3, r7, #4
 787 0078 3A1C     		mov	r2, r7
 788 007a 0832     		add	r2, r2, #8
 789 007c 1868     		ldr	r0, [r3]
 790 007e 111C     		mov	r1, r2
 791 0080 FFF7FEFF 		bl	CyBle_GattcWriteCharacteristicDescriptors
 792 0084 031C     		mov	r3, r0
 793 0086 2380     		strh	r3, [r4]
 716:.\Generated_Source\PSoC4/BLE_tps.c ****         
 717:.\Generated_Source\PSoC4/BLE_tps.c ****         if(CYBLE_ERROR_OK == apiResult)
 794              		.loc 1 717 0
 795 0088 3B1C     		mov	r3, r7
 796 008a 1633     		add	r3, r3, #22
 797 008c 1B88     		ldrh	r3, [r3]
 798 008e 002B     		cmp	r3, #0
 799 0090 03D1     		bne	.L43
 718:.\Generated_Source\PSoC4/BLE_tps.c ****         {
 719:.\Generated_Source\PSoC4/BLE_tps.c ****             cyBle_tpscReqHandle = cyBle_tpsc.txPowerLevelCccdHandle;
 800              		.loc 1 719 0
 801 0092 064B     		ldr	r3, .L46+4
 802 0094 9A88     		ldrh	r2, [r3, #4]
 803 0096 064B     		ldr	r3, .L46+8
 804 0098 1A80     		strh	r2, [r3]
 805              	.L43:
 720:.\Generated_Source\PSoC4/BLE_tps.c ****         }
 721:.\Generated_Source\PSoC4/BLE_tps.c ****     }
 722:.\Generated_Source\PSoC4/BLE_tps.c ****     else
 723:.\Generated_Source\PSoC4/BLE_tps.c ****     {
 724:.\Generated_Source\PSoC4/BLE_tps.c ****         /* apiResult equals CYBLE_ERROR_INVALID_PARAMETER */
 725:.\Generated_Source\PSoC4/BLE_tps.c ****     }
 726:.\Generated_Source\PSoC4/BLE_tps.c **** 
 727:.\Generated_Source\PSoC4/BLE_tps.c ****     /* Return status */
 728:.\Generated_Source\PSoC4/BLE_tps.c ****     return(apiResult);
 806              		.loc 1 728 0
 807 009a 3B1C     		mov	r3, r7
 808 009c 1633     		add	r3, r3, #22
 809 009e 1B88     		ldrh	r3, [r3]
 729:.\Generated_Source\PSoC4/BLE_tps.c **** }
ARM GAS  C:\Users\MANISH~1\AppData\Local\Temp\cc31JF4v.s 			page 28


 810              		.loc 1 729 0
 811 00a0 181C     		mov	r0, r3
 812 00a2 BD46     		mov	sp, r7
 813 00a4 07B0     		add	sp, sp, #28
 814              		@ sp needed
 815 00a6 90BD     		pop	{r4, r7, pc}
 816              	.L47:
 817              		.align	2
 818              	.L46:
 819 00a8 00000000 		.word	cyBle_clientState
 820 00ac 00000000 		.word	cyBle_tpsc
 821 00b0 04000000 		.word	cyBle_tpscReqHandle
 822              		.cfi_endproc
 823              	.LFE11:
 824              		.size	CyBle_TpscSetCharacteristicDescriptor, .-CyBle_TpscSetCharacteristicDescriptor
 825              		.section	.text.CyBle_TpscGetCharacteristicDescriptor,"ax",%progbits
 826              		.align	2
 827              		.global	CyBle_TpscGetCharacteristicDescriptor
 828              		.code	16
 829              		.thumb_func
 830              		.type	CyBle_TpscGetCharacteristicDescriptor, %function
 831              	CyBle_TpscGetCharacteristicDescriptor:
 832              	.LFB12:
 730:.\Generated_Source\PSoC4/BLE_tps.c **** 
 731:.\Generated_Source\PSoC4/BLE_tps.c **** 
 732:.\Generated_Source\PSoC4/BLE_tps.c **** /******************************************************************************
 733:.\Generated_Source\PSoC4/BLE_tps.c **** ##Function Name: TpscGetCharacteristicDescriptor
 734:.\Generated_Source\PSoC4/BLE_tps.c **** *******************************************************************************
 735:.\Generated_Source\PSoC4/BLE_tps.c **** 
 736:.\Generated_Source\PSoC4/BLE_tps.c **** Summary:
 737:.\Generated_Source\PSoC4/BLE_tps.c ****  Gets a characteristic descriptor of the Tx Power Service. 
 738:.\Generated_Source\PSoC4/BLE_tps.c ****  
 739:.\Generated_Source\PSoC4/BLE_tps.c ****  This function call can result in generation of the following events based on 
 740:.\Generated_Source\PSoC4/BLE_tps.c ****  the response from the server device:
 741:.\Generated_Source\PSoC4/BLE_tps.c ****  * CYBLE_EVT_TPSC_READ_DESCR_RESPONSE
 742:.\Generated_Source\PSoC4/BLE_tps.c ****  * CYBLE_EVT_GATTC_ERROR_RSP
 743:.\Generated_Source\PSoC4/BLE_tps.c **** 
 744:.\Generated_Source\PSoC4/BLE_tps.c **** Parameters:
 745:.\Generated_Source\PSoC4/BLE_tps.c ****  connHandle: The connection handle.
 746:.\Generated_Source\PSoC4/BLE_tps.c ****  charIndex: The index of the characteristic.
 747:.\Generated_Source\PSoC4/BLE_tps.c ****  descrIndex: The index of the characteristic descriptor.
 748:.\Generated_Source\PSoC4/BLE_tps.c **** 
 749:.\Generated_Source\PSoC4/BLE_tps.c **** Return:
 750:.\Generated_Source\PSoC4/BLE_tps.c ****  Return value is of type CYBLE_API_RESULT_T.
 751:.\Generated_Source\PSoC4/BLE_tps.c ****   * CYBLE_ERROR_OK - Request was sent successfully.
 752:.\Generated_Source\PSoC4/BLE_tps.c ****   * CYBLE_ERROR_INVALID_PARAMETER - Validation of the input parameters failed.
 753:.\Generated_Source\PSoC4/BLE_tps.c ****   * CYBLE_ERROR_INVALID_STATE - The component in in invalid state for current 
 754:.\Generated_Source\PSoC4/BLE_tps.c ****                                 operation.
 755:.\Generated_Source\PSoC4/BLE_tps.c ****   * CYBLE_ERROR_MEMORY_ALLOCATION_FAILED - Memory allocation failed.
 756:.\Generated_Source\PSoC4/BLE_tps.c ****   * CYBLE_ERROR_INVALID_OPERATION - Cannot process request to send PDU due to
 757:.\Generated_Source\PSoC4/BLE_tps.c ****                                     invalid operation performed by the
 758:.\Generated_Source\PSoC4/BLE_tps.c ****                                     application.
 759:.\Generated_Source\PSoC4/BLE_tps.c **** 
 760:.\Generated_Source\PSoC4/BLE_tps.c **** ******************************************************************************/
 761:.\Generated_Source\PSoC4/BLE_tps.c **** CYBLE_API_RESULT_T CyBle_TpscGetCharacteristicDescriptor(CYBLE_CONN_HANDLE_T connHandle,
 762:.\Generated_Source\PSoC4/BLE_tps.c ****                                                          CYBLE_TPS_CHAR_INDEX_T charIndex,
 763:.\Generated_Source\PSoC4/BLE_tps.c ****                                                          CYBLE_TPS_CHAR_DESCRIPTORS_T descrIndex)
ARM GAS  C:\Users\MANISH~1\AppData\Local\Temp\cc31JF4v.s 			page 29


 764:.\Generated_Source\PSoC4/BLE_tps.c **** {
 833              		.loc 1 764 0
 834              		.cfi_startproc
 835 0000 90B5     		push	{r4, r7, lr}
 836              		.cfi_def_cfa_offset 12
 837              		.cfi_offset 4, -12
 838              		.cfi_offset 7, -8
 839              		.cfi_offset 14, -4
 840 0002 85B0     		sub	sp, sp, #20
 841              		.cfi_def_cfa_offset 32
 842 0004 00AF     		add	r7, sp, #0
 843              		.cfi_def_cfa_register 7
 844 0006 3B1D     		add	r3, r7, #4
 845 0008 1880     		strh	r0, [r3]
 846 000a FB1C     		add	r3, r7, #3
 847 000c 1970     		strb	r1, [r3]
 848 000e BB1C     		add	r3, r7, #2
 849 0010 1A70     		strb	r2, [r3]
 765:.\Generated_Source\PSoC4/BLE_tps.c ****     CYBLE_API_RESULT_T apiResult = CYBLE_ERROR_OK;
 850              		.loc 1 765 0
 851 0012 3B1C     		mov	r3, r7
 852 0014 0E33     		add	r3, r3, #14
 853 0016 0022     		mov	r2, #0
 854 0018 1A80     		strh	r2, [r3]
 766:.\Generated_Source\PSoC4/BLE_tps.c ****     
 767:.\Generated_Source\PSoC4/BLE_tps.c ****     if(CYBLE_CLIENT_STATE_DISCOVERED != CyBle_GetClientState())
 855              		.loc 1 767 0
 856 001a 164B     		ldr	r3, .L53
 857 001c 1B78     		ldrb	r3, [r3]
 858 001e 052B     		cmp	r3, #5
 859 0020 05D0     		beq	.L49
 768:.\Generated_Source\PSoC4/BLE_tps.c ****     {
 769:.\Generated_Source\PSoC4/BLE_tps.c ****         apiResult = CYBLE_ERROR_INVALID_STATE;
 860              		.loc 1 769 0
 861 0022 3B1C     		mov	r3, r7
 862 0024 0E33     		add	r3, r3, #14
 863 0026 8322     		mov	r2, #131
 864 0028 5200     		lsl	r2, r2, #1
 865 002a 1A80     		strh	r2, [r3]
 866 002c 1BE0     		b	.L50
 867              	.L49:
 770:.\Generated_Source\PSoC4/BLE_tps.c ****     }
 771:.\Generated_Source\PSoC4/BLE_tps.c ****     else if((charIndex == CYBLE_TPS_TX_POWER_LEVEL) && (descrIndex == CYBLE_TPS_CCCD))
 868              		.loc 1 771 0
 869 002e FB1C     		add	r3, r7, #3
 870 0030 1B78     		ldrb	r3, [r3]
 871 0032 002B     		cmp	r3, #0
 872 0034 17D1     		bne	.L50
 873              		.loc 1 771 0 is_stmt 0 discriminator 1
 874 0036 BB1C     		add	r3, r7, #2
 875 0038 1B78     		ldrb	r3, [r3]
 876 003a 002B     		cmp	r3, #0
 877 003c 13D1     		bne	.L50
 772:.\Generated_Source\PSoC4/BLE_tps.c ****     {
 773:.\Generated_Source\PSoC4/BLE_tps.c ****         apiResult = CyBle_GattcReadCharacteristicDescriptors(connHandle, cyBle_tpsc.txPowerLevelCcc
 878              		.loc 1 773 0 is_stmt 1
 879 003e 0E4B     		ldr	r3, .L53+4
ARM GAS  C:\Users\MANISH~1\AppData\Local\Temp\cc31JF4v.s 			page 30


 880 0040 9A88     		ldrh	r2, [r3, #4]
 881 0042 3C1C     		mov	r4, r7
 882 0044 0E34     		add	r4, r4, #14
 883 0046 3B1D     		add	r3, r7, #4
 884 0048 1868     		ldr	r0, [r3]
 885 004a 111C     		mov	r1, r2
 886 004c FFF7FEFF 		bl	CyBle_GattcReadCharacteristicDescriptors
 887 0050 031C     		mov	r3, r0
 888 0052 2380     		strh	r3, [r4]
 774:.\Generated_Source\PSoC4/BLE_tps.c ****         
 775:.\Generated_Source\PSoC4/BLE_tps.c ****         if(CYBLE_ERROR_OK == apiResult)
 889              		.loc 1 775 0
 890 0054 3B1C     		mov	r3, r7
 891 0056 0E33     		add	r3, r3, #14
 892 0058 1B88     		ldrh	r3, [r3]
 893 005a 002B     		cmp	r3, #0
 894 005c 03D1     		bne	.L50
 776:.\Generated_Source\PSoC4/BLE_tps.c ****         {
 777:.\Generated_Source\PSoC4/BLE_tps.c ****             cyBle_tpscReqHandle = cyBle_tpsc.txPowerLevelCccdHandle;
 895              		.loc 1 777 0
 896 005e 064B     		ldr	r3, .L53+4
 897 0060 9A88     		ldrh	r2, [r3, #4]
 898 0062 064B     		ldr	r3, .L53+8
 899 0064 1A80     		strh	r2, [r3]
 900              	.L50:
 778:.\Generated_Source\PSoC4/BLE_tps.c ****         }
 779:.\Generated_Source\PSoC4/BLE_tps.c ****     }
 780:.\Generated_Source\PSoC4/BLE_tps.c ****     else
 781:.\Generated_Source\PSoC4/BLE_tps.c ****     {
 782:.\Generated_Source\PSoC4/BLE_tps.c ****         /* apiResult equals CYBLE_ERROR_INVALID_PARAMETER */
 783:.\Generated_Source\PSoC4/BLE_tps.c ****     }
 784:.\Generated_Source\PSoC4/BLE_tps.c ****     
 785:.\Generated_Source\PSoC4/BLE_tps.c ****     /* Return status */
 786:.\Generated_Source\PSoC4/BLE_tps.c ****     return(apiResult);
 901              		.loc 1 786 0
 902 0066 3B1C     		mov	r3, r7
 903 0068 0E33     		add	r3, r3, #14
 904 006a 1B88     		ldrh	r3, [r3]
 787:.\Generated_Source\PSoC4/BLE_tps.c **** }
 905              		.loc 1 787 0
 906 006c 181C     		mov	r0, r3
 907 006e BD46     		mov	sp, r7
 908 0070 05B0     		add	sp, sp, #20
 909              		@ sp needed
 910 0072 90BD     		pop	{r4, r7, pc}
 911              	.L54:
 912              		.align	2
 913              	.L53:
 914 0074 00000000 		.word	cyBle_clientState
 915 0078 00000000 		.word	cyBle_tpsc
 916 007c 04000000 		.word	cyBle_tpscReqHandle
 917              		.cfi_endproc
 918              	.LFE12:
 919              		.size	CyBle_TpscGetCharacteristicDescriptor, .-CyBle_TpscGetCharacteristicDescriptor
 920              		.text
 921              	.Letext0:
 922              		.file 2 ".\\Generated_Source\\PSoC4\\cytypes.h"
ARM GAS  C:\Users\MANISH~1\AppData\Local\Temp\cc31JF4v.s 			page 31


 923              		.file 3 ".\\Generated_Source\\PSoC4\\BLE_Stack.h"
 924              		.file 4 ".\\Generated_Source\\PSoC4\\BLE_StackGatt.h"
 925              		.file 5 ".\\Generated_Source\\PSoC4\\BLE_StackGattClient.h"
 926              		.file 6 ".\\Generated_Source\\PSoC4\\BLE.h"
 927              		.file 7 ".\\Generated_Source\\PSoC4\\BLE_gatt.h"
 928              		.file 8 ".\\Generated_Source\\PSoC4\\BLE_dis.h"
 929              		.file 9 ".\\Generated_Source\\PSoC4\\BLE_tps.h"
 930              		.file 10 ".\\Generated_Source\\PSoC4\\BLE_eventHandler.h"