ARM GAS  C:\Users\MANISH~1\AppData\Local\Temp\ccYMrBx9.s 			page 1


   1              		.cpu cortex-m0
   2              		.fpu softvfp
   3              		.eabi_attribute 20, 1
   4              		.eabi_attribute 21, 1
   5              		.eabi_attribute 23, 3
   6              		.eabi_attribute 24, 1
   7              		.eabi_attribute 25, 1
   8              		.eabi_attribute 26, 1
   9              		.eabi_attribute 30, 6
  10              		.eabi_attribute 34, 0
  11              		.eabi_attribute 18, 4
  12              		.code	16
  13              		.file	"BLE_gatt.c"
  14              		.text
  15              	.Ltext0:
  16              		.cfi_sections	.debug_frame
  17              		.comm	cyBle_state,1,1
  18              		.global	cyBle_gatts
  19              		.section	.rodata
  20              		.align	2
  21              		.type	cyBle_gatts, %object
  22              		.size	cyBle_gatts, 6
  23              	cyBle_gatts:
  24 0000 0800     		.short	8
  25 0002 0A00     		.short	10
  26 0004 0B00     		.short	11
  27              		.data
  28              		.align	2
  29              		.type	cyBle_attValues, %object
  30              		.size	cyBle_attValues, 32
  31              	cyBle_attValues:
  32 0000 43       		.byte	67
  33 0001 6C       		.byte	108
  34 0002 69       		.byte	105
  35 0003 65       		.byte	101
  36 0004 6E       		.byte	110
  37 0005 74       		.byte	116
  38 0006 20       		.byte	32
  39 0007 61       		.byte	97
  40 0008 6E       		.byte	110
  41 0009 64       		.byte	100
  42 000a 20       		.byte	32
  43 000b 53       		.byte	83
  44 000c 65       		.byte	101
  45 000d 72       		.byte	114
  46 000e 76       		.byte	118
  47 000f 65       		.byte	101
  48 0010 72       		.byte	114
  49 0011 00       		.byte	0
  50 0012 00       		.byte	0
  51 0013 06       		.byte	6
  52 0014 00       		.byte	0
  53 0015 28       		.byte	40
  54 0016 00       		.byte	0
  55 0017 00       		.byte	0
  56 0018 00       		.byte	0
  57 0019 64       		.byte	100
ARM GAS  C:\Users\MANISH~1\AppData\Local\Temp\ccYMrBx9.s 			page 2


  58 001a 00       		.byte	0
  59 001b 00       		.byte	0
  60 001c 00       		.byte	0
  61 001d 00       		.byte	0
  62 001e 00       		.byte	0
  63 001f 00       		.byte	0
  64              		.global	cyBle_attValuesCCCDFlashMemory
  65              		.section	.rodata
  66 0006 00000000 		.align	7
  66      00000000 
  66      00000000 
  66      00000000 
  66      00000000 
  67              		.type	cyBle_attValuesCCCDFlashMemory, %object
  68              		.size	cyBle_attValuesCCCDFlashMemory, 20
  69              	cyBle_attValuesCCCDFlashMemory:
  70 0080 00000000 		.space	20
  70      00000000 
  70      00000000 
  70      00000000 
  70      00000000 
  71              		.comm	cyBle_attValuesCCCD,4,4
  72              		.global	cyBle_gattDB
  73              		.align	2
  74              		.type	cyBle_gattDB, %object
  75              		.size	cyBle_gattDB, 300
  76              	cyBle_gattDB:
  77 0094 0100     		.short	1
  78 0096 0028     		.short	10240
  79 0098 01000000 		.word	1
  80 009c 0700     		.short	7
  81 009e 0000     		.space	2
  82 00a0 0018     		.short	6144
  83 00a2 0000     		.space	2
  84 00a4 00000000 		.word	0
  85 00a8 0200     		.short	2
  86 00aa 0328     		.short	10243
  87 00ac 01020000 		.word	513
  88 00b0 0300     		.short	3
  89 00b2 0000     		.space	2
  90 00b4 002A     		.short	10752
  91 00b6 0000     		.space	2
  92 00b8 00000000 		.word	0
  93 00bc 0300     		.short	3
  94 00be 002A     		.short	10752
  95 00c0 01020000 		.word	513
  96 00c4 0300     		.short	3
  97 00c6 0000     		.space	2
  98 00c8 1100     		.short	17
  99 00ca 0000     		.space	2
 100 00cc 00000000 		.word	cyBle_attValues
 101 00d0 0400     		.short	4
 102 00d2 0328     		.short	10243
 103 00d4 01020000 		.word	513
 104 00d8 0500     		.short	5
 105 00da 0000     		.space	2
 106 00dc 012A     		.short	10753
ARM GAS  C:\Users\MANISH~1\AppData\Local\Temp\ccYMrBx9.s 			page 3


 107 00de 0000     		.space	2
 108 00e0 00000000 		.word	0
 109 00e4 0500     		.short	5
 110 00e6 012A     		.short	10753
 111 00e8 01020000 		.word	513
 112 00ec 0500     		.short	5
 113 00ee 0000     		.space	2
 114 00f0 0200     		.short	2
 115 00f2 0000     		.space	2
 116 00f4 11000000 		.word	cyBle_attValues+17
 117 00f8 0600     		.short	6
 118 00fa 0328     		.short	10243
 119 00fc 01020000 		.word	513
 120 0100 0700     		.short	7
 121 0102 0000     		.space	2
 122 0104 042A     		.short	10756
 123 0106 0000     		.space	2
 124 0108 00000000 		.word	0
 125 010c 0700     		.short	7
 126 010e 042A     		.short	10756
 127 0110 01020000 		.word	513
 128 0114 0700     		.short	7
 129 0116 0000     		.space	2
 130 0118 0800     		.short	8
 131 011a 0000     		.space	2
 132 011c 13000000 		.word	cyBle_attValues+19
 133 0120 0800     		.short	8
 134 0122 0028     		.short	10240
 135 0124 01000000 		.word	1
 136 0128 0B00     		.short	11
 137 012a 0000     		.space	2
 138 012c 0118     		.short	6145
 139 012e 0000     		.space	2
 140 0130 00000000 		.word	0
 141 0134 0900     		.short	9
 142 0136 0328     		.short	10243
 143 0138 01220000 		.word	8705
 144 013c 0B00     		.short	11
 145 013e 0000     		.space	2
 146 0140 052A     		.short	10757
 147 0142 0000     		.space	2
 148 0144 00000000 		.word	0
 149 0148 0A00     		.short	10
 150 014a 052A     		.short	10757
 151 014c 01220000 		.word	8705
 152 0150 0B00     		.short	11
 153 0152 0000     		.space	2
 154 0154 0400     		.short	4
 155 0156 0000     		.space	2
 156 0158 1B000000 		.word	cyBle_attValues+27
 157 015c 0B00     		.short	11
 158 015e 0229     		.short	10498
 159 0160 040A0000 		.word	2564
 160 0164 0B00     		.short	11
 161 0166 0000     		.space	2
 162 0168 0200     		.short	2
 163 016a 0000     		.space	2
ARM GAS  C:\Users\MANISH~1\AppData\Local\Temp\ccYMrBx9.s 			page 4


 164 016c 00000000 		.word	cyBle_attValuesCCCD
 165 0170 0C00     		.short	12
 166 0172 0028     		.short	10240
 167 0174 01000000 		.word	1
 168 0178 0F00     		.short	15
 169 017a 0000     		.space	2
 170 017c 0418     		.short	6148
 171 017e 0000     		.space	2
 172 0180 00000000 		.word	0
 173 0184 0D00     		.short	13
 174 0186 0328     		.short	10243
 175 0188 01120000 		.word	4609
 176 018c 0F00     		.short	15
 177 018e 0000     		.space	2
 178 0190 072A     		.short	10759
 179 0192 0000     		.space	2
 180 0194 00000000 		.word	0
 181 0198 0E00     		.short	14
 182 019a 072A     		.short	10759
 183 019c 01120000 		.word	4609
 184 01a0 0F00     		.short	15
 185 01a2 0000     		.space	2
 186 01a4 0100     		.short	1
 187 01a6 0000     		.space	2
 188 01a8 1F000000 		.word	cyBle_attValues+31
 189 01ac 0F00     		.short	15
 190 01ae 0229     		.short	10498
 191 01b0 040A0000 		.word	2564
 192 01b4 0F00     		.short	15
 193 01b6 0000     		.space	2
 194 01b8 0200     		.short	2
 195 01ba 0000     		.space	2
 196 01bc 02000000 		.word	cyBle_attValuesCCCD+2
 197              		.comm	cyBle_clientState,1,1
 198              		.comm	cyBle_gattc,6,4
 199 01c0 00000000 		.section	.text.CyBle_GattsReInitGattDb,"ax",%progbits
 199      00000000 
 199      00000000 
 199      00000000 
 199      00000000 
 200              		.align	2
 201              		.global	CyBle_GattsReInitGattDb
 202              		.code	16
 203              		.thumb_func
 204              		.type	CyBle_GattsReInitGattDb, %function
 205              	CyBle_GattsReInitGattDb:
 206              	.LFB2:
 207              		.file 1 ".\\Generated_Source\\PSoC4\\BLE_gatt.c"
   1:.\Generated_Source\PSoC4/BLE_gatt.c **** /*******************************************************************************
   2:.\Generated_Source\PSoC4/BLE_gatt.c **** File Name: CYBLE_gatt.c
   3:.\Generated_Source\PSoC4/BLE_gatt.c **** Version 1.20
   4:.\Generated_Source\PSoC4/BLE_gatt.c **** 
   5:.\Generated_Source\PSoC4/BLE_gatt.c **** Description:
   6:.\Generated_Source\PSoC4/BLE_gatt.c ****  This file contains the source code for the GATT API of the BLE Component.
   7:.\Generated_Source\PSoC4/BLE_gatt.c **** 
   8:.\Generated_Source\PSoC4/BLE_gatt.c **** ********************************************************************************
   9:.\Generated_Source\PSoC4/BLE_gatt.c **** Copyright 2014-2015, Cypress Semiconductor Corporation.  All rights reserved.
ARM GAS  C:\Users\MANISH~1\AppData\Local\Temp\ccYMrBx9.s 			page 5


  10:.\Generated_Source\PSoC4/BLE_gatt.c **** You may use this file only in accordance with the license, terms, conditions,
  11:.\Generated_Source\PSoC4/BLE_gatt.c **** disclaimers, and limitations in the end user license agreement accompanying
  12:.\Generated_Source\PSoC4/BLE_gatt.c **** the software package with which this file was provided.
  13:.\Generated_Source\PSoC4/BLE_gatt.c **** *******************************************************************************/
  14:.\Generated_Source\PSoC4/BLE_gatt.c **** 
  15:.\Generated_Source\PSoC4/BLE_gatt.c **** 
  16:.\Generated_Source\PSoC4/BLE_gatt.c **** #include "BLE_eventHandler.h"
  17:.\Generated_Source\PSoC4/BLE_gatt.c **** 
  18:.\Generated_Source\PSoC4/BLE_gatt.c **** 
  19:.\Generated_Source\PSoC4/BLE_gatt.c **** /***************************************
  20:.\Generated_Source\PSoC4/BLE_gatt.c **** ##Global variables
  21:.\Generated_Source\PSoC4/BLE_gatt.c **** ***************************************/
  22:.\Generated_Source\PSoC4/BLE_gatt.c **** 
  23:.\Generated_Source\PSoC4/BLE_gatt.c **** CYBLE_STATE_T cyBle_state;
  24:.\Generated_Source\PSoC4/BLE_gatt.c **** 
  25:.\Generated_Source\PSoC4/BLE_gatt.c **** 
  26:.\Generated_Source\PSoC4/BLE_gatt.c **** #if(CYBLE_GATT_ROLE_SERVER)
  27:.\Generated_Source\PSoC4/BLE_gatt.c ****     
  28:.\Generated_Source\PSoC4/BLE_gatt.c ****     const CYBLE_GATTS_T cyBle_gatts =
  29:.\Generated_Source\PSoC4/BLE_gatt.c **** {
  30:.\Generated_Source\PSoC4/BLE_gatt.c ****     0x0008u,    /* Handle of the GATT service */
  31:.\Generated_Source\PSoC4/BLE_gatt.c ****     0x000Au,    /* Handle of the Service Changed characteristic */
  32:.\Generated_Source\PSoC4/BLE_gatt.c ****     0x000Bu,    /* Handle of the Client Characteristic Configuration descriptor */
  33:.\Generated_Source\PSoC4/BLE_gatt.c **** };
  34:.\Generated_Source\PSoC4/BLE_gatt.c ****     
  35:.\Generated_Source\PSoC4/BLE_gatt.c ****     static uint8 cyBle_attValues[0x20u] = {
  36:.\Generated_Source\PSoC4/BLE_gatt.c **** /* Device Name */
  37:.\Generated_Source\PSoC4/BLE_gatt.c **** (uint8)'C', (uint8)'l', (uint8)'i', (uint8)'e', (uint8)'n', (uint8)'t', (uint8)' ', (uint8)'a', (ui
  38:.\Generated_Source\PSoC4/BLE_gatt.c **** (uint8)' ', (uint8)'S', (uint8)'e', (uint8)'r', (uint8)'v', (uint8)'e', (uint8)'r', 
  39:.\Generated_Source\PSoC4/BLE_gatt.c **** 
  40:.\Generated_Source\PSoC4/BLE_gatt.c **** /* Appearance */
  41:.\Generated_Source\PSoC4/BLE_gatt.c **** 0x00u, 0x00u, 
  42:.\Generated_Source\PSoC4/BLE_gatt.c **** 
  43:.\Generated_Source\PSoC4/BLE_gatt.c **** /* Peripheral Preferred Connection Parameters */
  44:.\Generated_Source\PSoC4/BLE_gatt.c **** 0x06u, 0x00u, 0x28u, 0x00u, 0x00u, 0x00u, 0x64u, 0x00u, 
  45:.\Generated_Source\PSoC4/BLE_gatt.c **** 
  46:.\Generated_Source\PSoC4/BLE_gatt.c **** /* Service Changed */
  47:.\Generated_Source\PSoC4/BLE_gatt.c **** 0x00u, 0x00u, 0x00u, 0x00u, 
  48:.\Generated_Source\PSoC4/BLE_gatt.c **** 
  49:.\Generated_Source\PSoC4/BLE_gatt.c **** /* Tx Power Level */
  50:.\Generated_Source\PSoC4/BLE_gatt.c **** 0x00u, 
  51:.\Generated_Source\PSoC4/BLE_gatt.c **** 
  52:.\Generated_Source\PSoC4/BLE_gatt.c **** };
  53:.\Generated_Source\PSoC4/BLE_gatt.c **** 
  54:.\Generated_Source\PSoC4/BLE_gatt.c **** #if defined(__GNUC__) || defined(__ARMCC_VERSION)
  55:.\Generated_Source\PSoC4/BLE_gatt.c **** const uint8 cyBle_attValuesCCCDFlashMemory[CYBLE_GAP_MAX_BONDED_DEVICE + 1u][CYBLE_GATT_DB_CCCD_COU
  56:.\Generated_Source\PSoC4/BLE_gatt.c **** #elif defined(__ICCARM__)
  57:.\Generated_Source\PSoC4/BLE_gatt.c **** /* The cyBle_attValuesCCCDFlashMemory[] should be aligned to the size of a Flash row */
  58:.\Generated_Source\PSoC4/BLE_gatt.c **** #pragma data_alignment=CY_FLASH_SIZEOF_ROW
  59:.\Generated_Source\PSoC4/BLE_gatt.c **** const uint8 cyBle_attValuesCCCDFlashMemory[CYBLE_GAP_MAX_BONDED_DEVICE + 1u][CYBLE_GATT_DB_CCCD_COU
  60:.\Generated_Source\PSoC4/BLE_gatt.c **** #endif /* defined(__GNUC__) || defined(__ARMCC_VERSION) */
  61:.\Generated_Source\PSoC4/BLE_gatt.c **** {
  62:.\Generated_Source\PSoC4/BLE_gatt.c **** /* Client Characteristic Configuration */
  63:.\Generated_Source\PSoC4/BLE_gatt.c **** 0x00u, 0x00u, 
  64:.\Generated_Source\PSoC4/BLE_gatt.c **** 
  65:.\Generated_Source\PSoC4/BLE_gatt.c **** /* Client Characteristic Configuration */
  66:.\Generated_Source\PSoC4/BLE_gatt.c **** 0x00u, 0x00u, 
ARM GAS  C:\Users\MANISH~1\AppData\Local\Temp\ccYMrBx9.s 			page 6


  67:.\Generated_Source\PSoC4/BLE_gatt.c **** 
  68:.\Generated_Source\PSoC4/BLE_gatt.c **** },
  69:.\Generated_Source\PSoC4/BLE_gatt.c **** {
  70:.\Generated_Source\PSoC4/BLE_gatt.c **** /* Client Characteristic Configuration */
  71:.\Generated_Source\PSoC4/BLE_gatt.c **** 0x00u, 0x00u, 
  72:.\Generated_Source\PSoC4/BLE_gatt.c **** 
  73:.\Generated_Source\PSoC4/BLE_gatt.c **** /* Client Characteristic Configuration */
  74:.\Generated_Source\PSoC4/BLE_gatt.c **** 0x00u, 0x00u, 
  75:.\Generated_Source\PSoC4/BLE_gatt.c **** 
  76:.\Generated_Source\PSoC4/BLE_gatt.c **** },
  77:.\Generated_Source\PSoC4/BLE_gatt.c **** {
  78:.\Generated_Source\PSoC4/BLE_gatt.c **** /* Client Characteristic Configuration */
  79:.\Generated_Source\PSoC4/BLE_gatt.c **** 0x00u, 0x00u, 
  80:.\Generated_Source\PSoC4/BLE_gatt.c **** 
  81:.\Generated_Source\PSoC4/BLE_gatt.c **** /* Client Characteristic Configuration */
  82:.\Generated_Source\PSoC4/BLE_gatt.c **** 0x00u, 0x00u, 
  83:.\Generated_Source\PSoC4/BLE_gatt.c **** 
  84:.\Generated_Source\PSoC4/BLE_gatt.c **** },
  85:.\Generated_Source\PSoC4/BLE_gatt.c **** {
  86:.\Generated_Source\PSoC4/BLE_gatt.c **** /* Client Characteristic Configuration */
  87:.\Generated_Source\PSoC4/BLE_gatt.c **** 0x00u, 0x00u, 
  88:.\Generated_Source\PSoC4/BLE_gatt.c **** 
  89:.\Generated_Source\PSoC4/BLE_gatt.c **** /* Client Characteristic Configuration */
  90:.\Generated_Source\PSoC4/BLE_gatt.c **** 0x00u, 0x00u, 
  91:.\Generated_Source\PSoC4/BLE_gatt.c **** 
  92:.\Generated_Source\PSoC4/BLE_gatt.c **** },
  93:.\Generated_Source\PSoC4/BLE_gatt.c **** {
  94:.\Generated_Source\PSoC4/BLE_gatt.c **** /* Client Characteristic Configuration */
  95:.\Generated_Source\PSoC4/BLE_gatt.c **** 0x00u, 0x00u, 
  96:.\Generated_Source\PSoC4/BLE_gatt.c **** 
  97:.\Generated_Source\PSoC4/BLE_gatt.c **** /* Client Characteristic Configuration */
  98:.\Generated_Source\PSoC4/BLE_gatt.c **** 0x00u, 0x00u, 
  99:.\Generated_Source\PSoC4/BLE_gatt.c **** 
 100:.\Generated_Source\PSoC4/BLE_gatt.c **** },
 101:.\Generated_Source\PSoC4/BLE_gatt.c **** };
 102:.\Generated_Source\PSoC4/BLE_gatt.c **** uint8 cyBle_attValuesCCCD[CYBLE_GATT_DB_CCCD_COUNT];
 103:.\Generated_Source\PSoC4/BLE_gatt.c **** 
 104:.\Generated_Source\PSoC4/BLE_gatt.c **** const CYBLE_GATTS_DB_T cyBle_gattDB[0x0Fu] = {
 105:.\Generated_Source\PSoC4/BLE_gatt.c **** { 0x0001u, 0x2800u /* Primary service                     */, 0x00000001u /*        */, 0x0007u, {{
 106:.\Generated_Source\PSoC4/BLE_gatt.c **** { 0x0002u, 0x2803u /* Characteristic                      */, 0x00000201u /* rd     */, 0x0003u, {{
 107:.\Generated_Source\PSoC4/BLE_gatt.c **** { 0x0003u, 0x2A00u /* Device Name                         */, 0x00000201u /* rd     */, 0x0003u, {{
 108:.\Generated_Source\PSoC4/BLE_gatt.c **** { 0x0004u, 0x2803u /* Characteristic                      */, 0x00000201u /* rd     */, 0x0005u, {{
 109:.\Generated_Source\PSoC4/BLE_gatt.c **** { 0x0005u, 0x2A01u /* Appearance                          */, 0x00000201u /* rd     */, 0x0005u, {{
 110:.\Generated_Source\PSoC4/BLE_gatt.c **** { 0x0006u, 0x2803u /* Characteristic                      */, 0x00000201u /* rd     */, 0x0007u, {{
 111:.\Generated_Source\PSoC4/BLE_gatt.c **** { 0x0007u, 0x2A04u /* Peripheral Preferred Connection Par */, 0x00000201u /* rd     */, 0x0007u, {{
 112:.\Generated_Source\PSoC4/BLE_gatt.c **** { 0x0008u, 0x2800u /* Primary service                     */, 0x00000001u /*        */, 0x000Bu, {{
 113:.\Generated_Source\PSoC4/BLE_gatt.c **** { 0x0009u, 0x2803u /* Characteristic                      */, 0x00002201u /* rd,ind */, 0x000Bu, {{
 114:.\Generated_Source\PSoC4/BLE_gatt.c **** { 0x000Au, 0x2A05u /* Service Changed                     */, 0x00002201u /* rd,ind */, 0x000Bu, {{
 115:.\Generated_Source\PSoC4/BLE_gatt.c **** { 0x000Bu, 0x2902u /* Client Characteristic Configuration */, 0x00000A04u /* rd,wr  */, 0x000Bu, {{
 116:.\Generated_Source\PSoC4/BLE_gatt.c **** { 0x000Cu, 0x2800u /* Primary service                     */, 0x00000001u /*        */, 0x000Fu, {{
 117:.\Generated_Source\PSoC4/BLE_gatt.c **** { 0x000Du, 0x2803u /* Characteristic                      */, 0x00001201u /* rd,ntf */, 0x000Fu, {{
 118:.\Generated_Source\PSoC4/BLE_gatt.c **** { 0x000Eu, 0x2A07u /* Tx Power Level                      */, 0x00001201u /* rd,ntf */, 0x000Fu, {{
 119:.\Generated_Source\PSoC4/BLE_gatt.c **** { 0x000Fu, 0x2902u /* Client Characteristic Configuration */, 0x00000A04u /* rd,wr  */, 0x000Fu, {{
 120:.\Generated_Source\PSoC4/BLE_gatt.c **** };
 121:.\Generated_Source\PSoC4/BLE_gatt.c **** 
 122:.\Generated_Source\PSoC4/BLE_gatt.c **** 
 123:.\Generated_Source\PSoC4/BLE_gatt.c **** #endif /* (CYBLE_GATT_ROLE_SERVER) */
ARM GAS  C:\Users\MANISH~1\AppData\Local\Temp\ccYMrBx9.s 			page 7


 124:.\Generated_Source\PSoC4/BLE_gatt.c **** 
 125:.\Generated_Source\PSoC4/BLE_gatt.c **** #if(CYBLE_GATT_ROLE_CLIENT)
 126:.\Generated_Source\PSoC4/BLE_gatt.c ****     
 127:.\Generated_Source\PSoC4/BLE_gatt.c **** CYBLE_CLIENT_STATE_T cyBle_clientState;
 128:.\Generated_Source\PSoC4/BLE_gatt.c **** CYBLE_GATTC_T cyBle_gattc;
 129:.\Generated_Source\PSoC4/BLE_gatt.c ****     
 130:.\Generated_Source\PSoC4/BLE_gatt.c **** #endif /* (CYBLE_GATT_ROLE_CLIENT) */
 131:.\Generated_Source\PSoC4/BLE_gatt.c **** 
 132:.\Generated_Source\PSoC4/BLE_gatt.c **** 
 133:.\Generated_Source\PSoC4/BLE_gatt.c **** #if(CYBLE_GATT_ROLE_SERVER)
 134:.\Generated_Source\PSoC4/BLE_gatt.c **** 
 135:.\Generated_Source\PSoC4/BLE_gatt.c **** /****************************************************************************** 
 136:.\Generated_Source\PSoC4/BLE_gatt.c **** ##Function Name: CyBle_GattsReInitGattDb
 137:.\Generated_Source\PSoC4/BLE_gatt.c **** *******************************************************************************
 138:.\Generated_Source\PSoC4/BLE_gatt.c **** 
 139:.\Generated_Source\PSoC4/BLE_gatt.c **** Summary:
 140:.\Generated_Source\PSoC4/BLE_gatt.c ****  Reinitializes the GATT database.
 141:.\Generated_Source\PSoC4/BLE_gatt.c **** 
 142:.\Generated_Source\PSoC4/BLE_gatt.c **** Parameters:
 143:.\Generated_Source\PSoC4/BLE_gatt.c ****  None
 144:.\Generated_Source\PSoC4/BLE_gatt.c **** 
 145:.\Generated_Source\PSoC4/BLE_gatt.c **** Return:
 146:.\Generated_Source\PSoC4/BLE_gatt.c ****  CYBLE_API_RESULT_T: An API result states if the API succeeded or failed with
 147:.\Generated_Source\PSoC4/BLE_gatt.c ****  error codes:
 148:.\Generated_Source\PSoC4/BLE_gatt.c ****   * CYBLE_ERROR_OK: GATT database was reinitialized successfully
 149:.\Generated_Source\PSoC4/BLE_gatt.c ****   * CYBLE_ERROR_INVALID_STATE: If the function is called in any state except
 150:.\Generated_Source\PSoC4/BLE_gatt.c ****                                 CYBLE_STATE_DISCONNECTED.
 151:.\Generated_Source\PSoC4/BLE_gatt.c ****   * Any of the CyBle_GattsDbRegister() stack API function return values.
 152:.\Generated_Source\PSoC4/BLE_gatt.c **** 
 153:.\Generated_Source\PSoC4/BLE_gatt.c **** ******************************************************************************/
 154:.\Generated_Source\PSoC4/BLE_gatt.c **** CYBLE_API_RESULT_T CyBle_GattsReInitGattDb(void)
 155:.\Generated_Source\PSoC4/BLE_gatt.c **** {
 208              		.loc 1 155 0
 209              		.cfi_startproc
 210 0000 90B5     		push	{r4, r7, lr}
 211              		.cfi_def_cfa_offset 12
 212              		.cfi_offset 4, -12
 213              		.cfi_offset 7, -8
 214              		.cfi_offset 14, -4
 215 0002 83B0     		sub	sp, sp, #12
 216              		.cfi_def_cfa_offset 24
 217 0004 00AF     		add	r7, sp, #0
 218              		.cfi_def_cfa_register 7
 156:.\Generated_Source\PSoC4/BLE_gatt.c ****     CYBLE_API_RESULT_T apiResult;
 157:.\Generated_Source\PSoC4/BLE_gatt.c ****     
 158:.\Generated_Source\PSoC4/BLE_gatt.c ****     if(CYBLE_STATE_DISCONNECTED == CyBle_GetState())
 219              		.loc 1 158 0
 220 0006 0C4B     		ldr	r3, .L5
 221 0008 1B78     		ldrb	r3, [r3]
 222 000a 042B     		cmp	r3, #4
 223 000c 09D1     		bne	.L2
 159:.\Generated_Source\PSoC4/BLE_gatt.c ****     {
 160:.\Generated_Source\PSoC4/BLE_gatt.c ****         apiResult = CyBle_GattsDbRegister(cyBle_gattDB, CYBLE_GATT_DB_INDEX_COUNT, CYBLE_GATT_DB_MA
 224              		.loc 1 160 0
 225 000e BC1D     		add	r4, r7, #6
 226 0010 0A4B     		ldr	r3, .L5+4
 227 0012 181C     		mov	r0, r3
ARM GAS  C:\Users\MANISH~1\AppData\Local\Temp\ccYMrBx9.s 			page 8


 228 0014 0F21     		mov	r1, #15
 229 0016 1122     		mov	r2, #17
 230 0018 FFF7FEFF 		bl	CyBle_GattsDbRegister
 231 001c 031C     		mov	r3, r0
 232 001e 2380     		strh	r3, [r4]
 233 0020 03E0     		b	.L3
 234              	.L2:
 161:.\Generated_Source\PSoC4/BLE_gatt.c ****     }
 162:.\Generated_Source\PSoC4/BLE_gatt.c ****     else
 163:.\Generated_Source\PSoC4/BLE_gatt.c ****     {
 164:.\Generated_Source\PSoC4/BLE_gatt.c ****         apiResult = CYBLE_ERROR_INVALID_STATE;
 235              		.loc 1 164 0
 236 0022 BB1D     		add	r3, r7, #6
 237 0024 8322     		mov	r2, #131
 238 0026 5200     		lsl	r2, r2, #1
 239 0028 1A80     		strh	r2, [r3]
 240              	.L3:
 165:.\Generated_Source\PSoC4/BLE_gatt.c ****     }
 166:.\Generated_Source\PSoC4/BLE_gatt.c ****     
 167:.\Generated_Source\PSoC4/BLE_gatt.c ****     return(apiResult);
 241              		.loc 1 167 0
 242 002a BB1D     		add	r3, r7, #6
 243 002c 1B88     		ldrh	r3, [r3]
 168:.\Generated_Source\PSoC4/BLE_gatt.c **** }
 244              		.loc 1 168 0
 245 002e 181C     		mov	r0, r3
 246 0030 BD46     		mov	sp, r7
 247 0032 03B0     		add	sp, sp, #12
 248              		@ sp needed
 249 0034 90BD     		pop	{r4, r7, pc}
 250              	.L6:
 251 0036 C046     		.align	2
 252              	.L5:
 253 0038 00000000 		.word	cyBle_state
 254 003c 00000000 		.word	cyBle_gattDB
 255              		.cfi_endproc
 256              	.LFE2:
 257              		.size	CyBle_GattsReInitGattDb, .-CyBle_GattsReInitGattDb
 258              		.section	.text.CyBle_GattsWriteEventHandler,"ax",%progbits
 259              		.align	2
 260              		.global	CyBle_GattsWriteEventHandler
 261              		.code	16
 262              		.thumb_func
 263              		.type	CyBle_GattsWriteEventHandler, %function
 264              	CyBle_GattsWriteEventHandler:
 265              	.LFB3:
 169:.\Generated_Source\PSoC4/BLE_gatt.c **** 
 170:.\Generated_Source\PSoC4/BLE_gatt.c **** 
 171:.\Generated_Source\PSoC4/BLE_gatt.c **** /****************************************************************************** 
 172:.\Generated_Source\PSoC4/BLE_gatt.c **** ##Function Name: CyBle_GattsWriteEventHandler
 173:.\Generated_Source\PSoC4/BLE_gatt.c **** *******************************************************************************
 174:.\Generated_Source\PSoC4/BLE_gatt.c **** 
 175:.\Generated_Source\PSoC4/BLE_gatt.c **** Summary:
 176:.\Generated_Source\PSoC4/BLE_gatt.c ****  Handles the Write Request Event for GATT service.
 177:.\Generated_Source\PSoC4/BLE_gatt.c **** 
 178:.\Generated_Source\PSoC4/BLE_gatt.c **** Parameters:
 179:.\Generated_Source\PSoC4/BLE_gatt.c ****  *eventParam: The pointer to the data structure specified by the event.
ARM GAS  C:\Users\MANISH~1\AppData\Local\Temp\ccYMrBx9.s 			page 9


 180:.\Generated_Source\PSoC4/BLE_gatt.c **** 
 181:.\Generated_Source\PSoC4/BLE_gatt.c **** Return:
 182:.\Generated_Source\PSoC4/BLE_gatt.c ****  * CYBLE_GATT_ERR_CODE_T: An API result returns one of the following status 
 183:.\Generated_Source\PSoC4/BLE_gatt.c ****     values
 184:.\Generated_Source\PSoC4/BLE_gatt.c ****  * CYBLE_GATT_ERR_NONE - Write is successful.
 185:.\Generated_Source\PSoC4/BLE_gatt.c **** 
 186:.\Generated_Source\PSoC4/BLE_gatt.c **** ******************************************************************************/
 187:.\Generated_Source\PSoC4/BLE_gatt.c **** CYBLE_GATT_ERR_CODE_T CyBle_GattsWriteEventHandler(CYBLE_GATTS_WRITE_REQ_PARAM_T *eventParam)
 188:.\Generated_Source\PSoC4/BLE_gatt.c **** {
 266              		.loc 1 188 0
 267              		.cfi_startproc
 268 0000 90B5     		push	{r4, r7, lr}
 269              		.cfi_def_cfa_offset 12
 270              		.cfi_offset 4, -12
 271              		.cfi_offset 7, -8
 272              		.cfi_offset 14, -4
 273 0002 85B0     		sub	sp, sp, #20
 274              		.cfi_def_cfa_offset 32
 275 0004 00AF     		add	r7, sp, #0
 276              		.cfi_def_cfa_register 7
 277 0006 7860     		str	r0, [r7, #4]
 189:.\Generated_Source\PSoC4/BLE_gatt.c ****     CYBLE_GATT_ERR_CODE_T gattErr = CYBLE_GATT_ERR_NONE;
 278              		.loc 1 189 0
 279 0008 3B1C     		mov	r3, r7
 280 000a 0F33     		add	r3, r3, #15
 281 000c 0022     		mov	r2, #0
 282 000e 1A70     		strb	r2, [r3]
 190:.\Generated_Source\PSoC4/BLE_gatt.c ****     
 191:.\Generated_Source\PSoC4/BLE_gatt.c ****     /* Client Characteristic Configuration descriptor write request */
 192:.\Generated_Source\PSoC4/BLE_gatt.c ****     if(eventParam->handleValPair.attrHandle == cyBle_gatts.cccdHandle)
 283              		.loc 1 192 0
 284 0010 7B68     		ldr	r3, [r7, #4]
 285 0012 9A89     		ldrh	r2, [r3, #12]
 286 0014 0B23     		mov	r3, #11
 287 0016 9A42     		cmp	r2, r3
 288 0018 37D1     		bne	.L8
 193:.\Generated_Source\PSoC4/BLE_gatt.c ****     {
 194:.\Generated_Source\PSoC4/BLE_gatt.c ****         /* Store value to database */
 195:.\Generated_Source\PSoC4/BLE_gatt.c ****         gattErr = CyBle_GattsWriteAttributeValue(&eventParam->handleValPair, 0u, 
 289              		.loc 1 195 0
 290 001a 7B68     		ldr	r3, [r7, #4]
 291 001c 1A1D     		add	r2, r3, #4
 292 001e 7B68     		ldr	r3, [r7, #4]
 293 0020 3C1C     		mov	r4, r7
 294 0022 0F34     		add	r4, r4, #15
 295 0024 101C     		mov	r0, r2
 296 0026 0021     		mov	r1, #0
 297 0028 1A1C     		mov	r2, r3
 298 002a 4023     		mov	r3, #64
 299 002c FFF7FEFF 		bl	CyBle_GattsWriteAttributeValue
 300 0030 031C     		mov	r3, r0
 301 0032 2370     		strb	r3, [r4]
 196:.\Generated_Source\PSoC4/BLE_gatt.c ****                         &eventParam->connHandle, CYBLE_GATT_DB_PEER_INITIATED);
 197:.\Generated_Source\PSoC4/BLE_gatt.c ****         
 198:.\Generated_Source\PSoC4/BLE_gatt.c ****         if(CYBLE_GATT_ERR_NONE == gattErr)
 302              		.loc 1 198 0
 303 0034 3B1C     		mov	r3, r7
ARM GAS  C:\Users\MANISH~1\AppData\Local\Temp\ccYMrBx9.s 			page 10


 304 0036 0F33     		add	r3, r3, #15
 305 0038 1B78     		ldrb	r3, [r3]
 306 003a 002B     		cmp	r3, #0
 307 003c 1DD1     		bne	.L9
 199:.\Generated_Source\PSoC4/BLE_gatt.c ****         {
 200:.\Generated_Source\PSoC4/BLE_gatt.c ****             if(CYBLE_IS_INDICATION_ENABLED_IN_PTR(eventParam->handleValPair.value.val))
 308              		.loc 1 200 0
 309 003e 7B68     		ldr	r3, [r7, #4]
 310 0040 5B68     		ldr	r3, [r3, #4]
 311 0042 181C     		mov	r0, r3
 312 0044 FFF7FEFF 		bl	CyBle_Get16ByPtr
 313 0048 031C     		mov	r3, r0
 314 004a 1A1C     		mov	r2, r3
 315 004c 0223     		mov	r3, #2
 316 004e 1340     		and	r3, r2
 317 0050 9BB2     		uxth	r3, r3
 318 0052 002B     		cmp	r3, #0
 319 0054 08D0     		beq	.L10
 201:.\Generated_Source\PSoC4/BLE_gatt.c ****             {
 202:.\Generated_Source\PSoC4/BLE_gatt.c ****                 CyBle_ApplCallback((uint32)CYBLE_EVT_GATTS_INDICATION_ENABLED, eventParam);
 320              		.loc 1 202 0
 321 0056 104B     		ldr	r3, .L12
 322 0058 1B68     		ldr	r3, [r3]
 323 005a 8222     		mov	r2, #130
 324 005c 5100     		lsl	r1, r2, #1
 325 005e 7A68     		ldr	r2, [r7, #4]
 326 0060 081C     		mov	r0, r1
 327 0062 111C     		mov	r1, r2
 328 0064 9847     		blx	r3
 329 0066 08E0     		b	.L9
 330              	.L10:
 203:.\Generated_Source\PSoC4/BLE_gatt.c ****             }
 204:.\Generated_Source\PSoC4/BLE_gatt.c ****             else
 205:.\Generated_Source\PSoC4/BLE_gatt.c ****             {
 206:.\Generated_Source\PSoC4/BLE_gatt.c ****                 CyBle_ApplCallback((uint32)CYBLE_EVT_GATTS_INDICATION_DISABLED, eventParam);
 331              		.loc 1 206 0
 332 0068 0B4B     		ldr	r3, .L12
 333 006a 1B68     		ldr	r3, [r3]
 334 006c 0622     		mov	r2, #6
 335 006e 111C     		mov	r1, r2
 336 0070 FF31     		add	r1, r1, #255
 337 0072 7A68     		ldr	r2, [r7, #4]
 338 0074 081C     		mov	r0, r1
 339 0076 111C     		mov	r1, r2
 340 0078 9847     		blx	r3
 341              	.L9:
 207:.\Generated_Source\PSoC4/BLE_gatt.c ****             }
 208:.\Generated_Source\PSoC4/BLE_gatt.c ****         }
 209:.\Generated_Source\PSoC4/BLE_gatt.c ****         cyBle_eventHandlerFlag &= (uint8)~CYBLE_CALLBACK;
 342              		.loc 1 209 0
 343 007a 084B     		ldr	r3, .L12+4
 344 007c 1B78     		ldrb	r3, [r3]
 345 007e DBB2     		uxtb	r3, r3
 346 0080 0122     		mov	r2, #1
 347 0082 9343     		bic	r3, r2
 348 0084 DAB2     		uxtb	r2, r3
 349 0086 054B     		ldr	r3, .L12+4
ARM GAS  C:\Users\MANISH~1\AppData\Local\Temp\ccYMrBx9.s 			page 11


 350 0088 1A70     		strb	r2, [r3]
 351              	.L8:
 210:.\Generated_Source\PSoC4/BLE_gatt.c ****     }
 211:.\Generated_Source\PSoC4/BLE_gatt.c ****     return (gattErr);
 352              		.loc 1 211 0
 353 008a 3B1C     		mov	r3, r7
 354 008c 0F33     		add	r3, r3, #15
 355 008e 1B78     		ldrb	r3, [r3]
 212:.\Generated_Source\PSoC4/BLE_gatt.c **** }
 356              		.loc 1 212 0
 357 0090 181C     		mov	r0, r3
 358 0092 BD46     		mov	sp, r7
 359 0094 05B0     		add	sp, sp, #20
 360              		@ sp needed
 361 0096 90BD     		pop	{r4, r7, pc}
 362              	.L13:
 363              		.align	2
 364              	.L12:
 365 0098 00000000 		.word	CyBle_ApplCallback
 366 009c 00000000 		.word	cyBle_eventHandlerFlag
 367              		.cfi_endproc
 368              	.LFE3:
 369              		.size	CyBle_GattsWriteEventHandler, .-CyBle_GattsWriteEventHandler
 370              		.section	.text.CyBle_GattcStartDiscovery,"ax",%progbits
 371              		.align	2
 372              		.global	CyBle_GattcStartDiscovery
 373              		.code	16
 374              		.thumb_func
 375              		.type	CyBle_GattcStartDiscovery, %function
 376              	CyBle_GattcStartDiscovery:
 377              	.LFB4:
 213:.\Generated_Source\PSoC4/BLE_gatt.c **** 
 214:.\Generated_Source\PSoC4/BLE_gatt.c **** 
 215:.\Generated_Source\PSoC4/BLE_gatt.c **** #endif /* (CYBLE_GATT_ROLE_SERVER) */
 216:.\Generated_Source\PSoC4/BLE_gatt.c **** 
 217:.\Generated_Source\PSoC4/BLE_gatt.c **** #if(CYBLE_GATT_ROLE_CLIENT)
 218:.\Generated_Source\PSoC4/BLE_gatt.c **** 
 219:.\Generated_Source\PSoC4/BLE_gatt.c **** 
 220:.\Generated_Source\PSoC4/BLE_gatt.c **** /****************************************************************************** 
 221:.\Generated_Source\PSoC4/BLE_gatt.c **** ##Function Name: CyBle_GattcStartDiscovery
 222:.\Generated_Source\PSoC4/BLE_gatt.c **** *******************************************************************************
 223:.\Generated_Source\PSoC4/BLE_gatt.c **** 
 224:.\Generated_Source\PSoC4/BLE_gatt.c **** Summary:
 225:.\Generated_Source\PSoC4/BLE_gatt.c ****  Starts the automatic server discovery process. Two events may be generated 
 226:.\Generated_Source\PSoC4/BLE_gatt.c ****  after calling this function - CYBLE_EVT_GATTC_DISCOVERY_COMPLETE or 
 227:.\Generated_Source\PSoC4/BLE_gatt.c ****  CYBLE_EVT_GATTC_ERROR_RSP. The CYBLE_EVT_GATTC_DISCOVERY_COMPLETE event is 
 228:.\Generated_Source\PSoC4/BLE_gatt.c ****  generated when the remote device was successfully discovered. The
 229:.\Generated_Source\PSoC4/BLE_gatt.c ****  CYBLE_EVT_GATTC_ERROR_RSP is generated if the device discovery is failed.
 230:.\Generated_Source\PSoC4/BLE_gatt.c **** 
 231:.\Generated_Source\PSoC4/BLE_gatt.c **** Parameters:
 232:.\Generated_Source\PSoC4/BLE_gatt.c ****  connHandle: The handle which consists of the device ID and ATT connection ID.
 233:.\Generated_Source\PSoC4/BLE_gatt.c **** 
 234:.\Generated_Source\PSoC4/BLE_gatt.c **** Return:
 235:.\Generated_Source\PSoC4/BLE_gatt.c ****   CYBLE_API_RESULT_T : Return value indicates if the function succeeded or
 236:.\Generated_Source\PSoC4/BLE_gatt.c ****                        failed. Following are the possible error codes.
 237:.\Generated_Source\PSoC4/BLE_gatt.c ****   CYBLE_ERROR_OK - On successful operation
 238:.\Generated_Source\PSoC4/BLE_gatt.c ****   CYBLE_ERROR_INVALID_PARAMETER - 'connHandle' value does not represent any
ARM GAS  C:\Users\MANISH~1\AppData\Local\Temp\ccYMrBx9.s 			page 12


 239:.\Generated_Source\PSoC4/BLE_gatt.c ****                                    existing entry.
 240:.\Generated_Source\PSoC4/BLE_gatt.c ****                                                  in the Stack
 241:.\Generated_Source\PSoC4/BLE_gatt.c ****   CYBLE_ERROR_INVALID_OPERATION - The operation is not permitted.
 242:.\Generated_Source\PSoC4/BLE_gatt.c ****   CYBLE_ERROR_MEMORY_ALLOCATION_FAILED - Memory allocation failed.
 243:.\Generated_Source\PSoC4/BLE_gatt.c **** 
 244:.\Generated_Source\PSoC4/BLE_gatt.c **** ******************************************************************************/
 245:.\Generated_Source\PSoC4/BLE_gatt.c **** CYBLE_API_RESULT_T CyBle_GattcStartDiscovery(CYBLE_CONN_HANDLE_T connHandle)
 246:.\Generated_Source\PSoC4/BLE_gatt.c **** {
 378              		.loc 1 246 0
 379              		.cfi_startproc
 380 0000 90B5     		push	{r4, r7, lr}
 381              		.cfi_def_cfa_offset 12
 382              		.cfi_offset 4, -12
 383              		.cfi_offset 7, -8
 384              		.cfi_offset 14, -4
 385 0002 85B0     		sub	sp, sp, #20
 386              		.cfi_def_cfa_offset 32
 387 0004 00AF     		add	r7, sp, #0
 388              		.cfi_def_cfa_register 7
 389 0006 3B1D     		add	r3, r7, #4
 390 0008 1880     		strh	r0, [r3]
 247:.\Generated_Source\PSoC4/BLE_gatt.c ****     uint8 j;
 248:.\Generated_Source\PSoC4/BLE_gatt.c ****     CYBLE_API_RESULT_T apiResult;
 249:.\Generated_Source\PSoC4/BLE_gatt.c ****     
 250:.\Generated_Source\PSoC4/BLE_gatt.c ****     if(CYBLE_STATE_CONNECTED != CyBle_GetState())
 391              		.loc 1 250 0
 392 000a 2B4B     		ldr	r3, .L20
 393 000c 1B78     		ldrb	r3, [r3]
 394 000e 022B     		cmp	r3, #2
 395 0010 05D0     		beq	.L15
 251:.\Generated_Source\PSoC4/BLE_gatt.c ****     {
 252:.\Generated_Source\PSoC4/BLE_gatt.c ****         apiResult = CYBLE_ERROR_INVALID_STATE;
 396              		.loc 1 252 0
 397 0012 3B1C     		mov	r3, r7
 398 0014 0C33     		add	r3, r3, #12
 399 0016 8322     		mov	r2, #131
 400 0018 5200     		lsl	r2, r2, #1
 401 001a 1A80     		strh	r2, [r3]
 402 001c 45E0     		b	.L16
 403              	.L15:
 253:.\Generated_Source\PSoC4/BLE_gatt.c ****     }
 254:.\Generated_Source\PSoC4/BLE_gatt.c ****     else
 255:.\Generated_Source\PSoC4/BLE_gatt.c ****     {
 256:.\Generated_Source\PSoC4/BLE_gatt.c ****         CyBle_ServiceInit();
 404              		.loc 1 256 0
 405 001e FFF7FEFF 		bl	CyBle_ServiceInit
 257:.\Generated_Source\PSoC4/BLE_gatt.c ****         
 258:.\Generated_Source\PSoC4/BLE_gatt.c ****         cyBle_connHandle = connHandle;
 406              		.loc 1 258 0
 407 0022 264A     		ldr	r2, .L20+4
 408 0024 3B1D     		add	r3, r7, #4
 409 0026 111C     		mov	r1, r2
 410 0028 1A1C     		mov	r2, r3
 411 002a 0223     		mov	r3, #2
 412 002c 081C     		mov	r0, r1
 413 002e 111C     		mov	r1, r2
 414 0030 1A1C     		mov	r2, r3
ARM GAS  C:\Users\MANISH~1\AppData\Local\Temp\ccYMrBx9.s 			page 13


 415 0032 FFF7FEFF 		bl	memcpy
 259:.\Generated_Source\PSoC4/BLE_gatt.c ****         cyBle_disCount = 0u;
 416              		.loc 1 259 0
 417 0036 224B     		ldr	r3, .L20+8
 418 0038 0022     		mov	r2, #0
 419 003a 1A70     		strb	r2, [r3]
 260:.\Generated_Source\PSoC4/BLE_gatt.c **** 
 261:.\Generated_Source\PSoC4/BLE_gatt.c ****         /* Clean old discovery information */
 262:.\Generated_Source\PSoC4/BLE_gatt.c ****         for(j = 0u; j < (uint8) CYBLE_SRVI_COUNT; j++)
 420              		.loc 1 262 0
 421 003c 3B1C     		mov	r3, r7
 422 003e 0F33     		add	r3, r3, #15
 423 0040 0022     		mov	r2, #0
 424 0042 1A70     		strb	r2, [r3]
 425 0044 14E0     		b	.L17
 426              	.L18:
 263:.\Generated_Source\PSoC4/BLE_gatt.c ****         {
 264:.\Generated_Source\PSoC4/BLE_gatt.c ****             (void)memset(&cyBle_serverInfo[j].range, 0, sizeof(cyBle_serverInfo[0].range));
 427              		.loc 1 264 0 discriminator 2
 428 0046 3B1C     		mov	r3, r7
 429 0048 0F33     		add	r3, r3, #15
 430 004a 1A78     		ldrb	r2, [r3]
 431 004c 131C     		mov	r3, r2
 432 004e 5B00     		lsl	r3, r3, #1
 433 0050 9B18     		add	r3, r3, r2
 434 0052 5B00     		lsl	r3, r3, #1
 435 0054 1B4A     		ldr	r2, .L20+12
 436 0056 9B18     		add	r3, r3, r2
 437 0058 181C     		mov	r0, r3
 438 005a 0021     		mov	r1, #0
 439 005c 0422     		mov	r2, #4
 440 005e FFF7FEFF 		bl	memset
 262:.\Generated_Source\PSoC4/BLE_gatt.c ****         for(j = 0u; j < (uint8) CYBLE_SRVI_COUNT; j++)
 441              		.loc 1 262 0 discriminator 2
 442 0062 3B1C     		mov	r3, r7
 443 0064 0F33     		add	r3, r3, #15
 444 0066 1A78     		ldrb	r2, [r3]
 445 0068 3B1C     		mov	r3, r7
 446 006a 0F33     		add	r3, r3, #15
 447 006c 0132     		add	r2, r2, #1
 448 006e 1A70     		strb	r2, [r3]
 449              	.L17:
 262:.\Generated_Source\PSoC4/BLE_gatt.c ****         for(j = 0u; j < (uint8) CYBLE_SRVI_COUNT; j++)
 450              		.loc 1 262 0 is_stmt 0 discriminator 1
 451 0070 3B1C     		mov	r3, r7
 452 0072 0F33     		add	r3, r3, #15
 453 0074 1B78     		ldrb	r3, [r3]
 454 0076 022B     		cmp	r3, #2
 455 0078 E5D9     		bls	.L18
 265:.\Generated_Source\PSoC4/BLE_gatt.c ****         }
 266:.\Generated_Source\PSoC4/BLE_gatt.c **** 
 267:.\Generated_Source\PSoC4/BLE_gatt.c ****         apiResult = CyBle_GattcDiscoverAllPrimaryServices(connHandle);
 456              		.loc 1 267 0 is_stmt 1
 457 007a 3C1C     		mov	r4, r7
 458 007c 0C34     		add	r4, r4, #12
 459 007e 3B1D     		add	r3, r7, #4
 460 0080 1868     		ldr	r0, [r3]
ARM GAS  C:\Users\MANISH~1\AppData\Local\Temp\ccYMrBx9.s 			page 14


 461 0082 FFF7FEFF 		bl	CyBle_GattcDiscoverAllPrimaryServices
 462 0086 031C     		mov	r3, r0
 463 0088 2380     		strh	r3, [r4]
 268:.\Generated_Source\PSoC4/BLE_gatt.c **** 
 269:.\Generated_Source\PSoC4/BLE_gatt.c ****         if(CYBLE_ERROR_OK == apiResult)
 464              		.loc 1 269 0
 465 008a 3B1C     		mov	r3, r7
 466 008c 0C33     		add	r3, r3, #12
 467 008e 1B88     		ldrh	r3, [r3]
 468 0090 002B     		cmp	r3, #0
 469 0092 0AD1     		bne	.L16
 270:.\Generated_Source\PSoC4/BLE_gatt.c ****         {
 271:.\Generated_Source\PSoC4/BLE_gatt.c ****             CyBle_SetClientState(CYBLE_CLIENT_STATE_SRVC_DISCOVERING);
 470              		.loc 1 271 0
 471 0094 0C4B     		ldr	r3, .L20+16
 472 0096 0122     		mov	r2, #1
 473 0098 1A70     		strb	r2, [r3]
 272:.\Generated_Source\PSoC4/BLE_gatt.c ****             cyBle_eventHandlerFlag |= CYBLE_AUTO_DISCOVERY;
 474              		.loc 1 272 0
 475 009a 0C4B     		ldr	r3, .L20+20
 476 009c 1B78     		ldrb	r3, [r3]
 477 009e DBB2     		uxtb	r3, r3
 478 00a0 0222     		mov	r2, #2
 479 00a2 1343     		orr	r3, r2
 480 00a4 DAB2     		uxtb	r2, r3
 481 00a6 094B     		ldr	r3, .L20+20
 482 00a8 1A70     		strb	r2, [r3]
 483              	.L16:
 273:.\Generated_Source\PSoC4/BLE_gatt.c ****         }
 274:.\Generated_Source\PSoC4/BLE_gatt.c ****     }
 275:.\Generated_Source\PSoC4/BLE_gatt.c ****     
 276:.\Generated_Source\PSoC4/BLE_gatt.c ****     return (apiResult);
 484              		.loc 1 276 0
 485 00aa 3B1C     		mov	r3, r7
 486 00ac 0C33     		add	r3, r3, #12
 487 00ae 1B88     		ldrh	r3, [r3]
 277:.\Generated_Source\PSoC4/BLE_gatt.c **** }
 488              		.loc 1 277 0
 489 00b0 181C     		mov	r0, r3
 490 00b2 BD46     		mov	sp, r7
 491 00b4 05B0     		add	sp, sp, #20
 492              		@ sp needed
 493 00b6 90BD     		pop	{r4, r7, pc}
 494              	.L21:
 495              		.align	2
 496              	.L20:
 497 00b8 00000000 		.word	cyBle_state
 498 00bc 00000000 		.word	cyBle_connHandle
 499 00c0 00000000 		.word	cyBle_disCount
 500 00c4 00000000 		.word	cyBle_serverInfo
 501 00c8 00000000 		.word	cyBle_clientState
 502 00cc 00000000 		.word	cyBle_eventHandlerFlag
 503              		.cfi_endproc
 504              	.LFE4:
 505              		.size	CyBle_GattcStartDiscovery, .-CyBle_GattcStartDiscovery
 506              		.section	.text.CyBle_GattcDiscoverCharacteristicsEventHandler,"ax",%progbits
 507              		.align	2
ARM GAS  C:\Users\MANISH~1\AppData\Local\Temp\ccYMrBx9.s 			page 15


 508              		.global	CyBle_GattcDiscoverCharacteristicsEventHandler
 509              		.code	16
 510              		.thumb_func
 511              		.type	CyBle_GattcDiscoverCharacteristicsEventHandler, %function
 512              	CyBle_GattcDiscoverCharacteristicsEventHandler:
 513              	.LFB5:
 278:.\Generated_Source\PSoC4/BLE_gatt.c **** 
 279:.\Generated_Source\PSoC4/BLE_gatt.c **** 
 280:.\Generated_Source\PSoC4/BLE_gatt.c **** /******************************************************************************
 281:.\Generated_Source\PSoC4/BLE_gatt.c **** ##Function Name: CyBle_GattcDiscoverCharacteristicsEventHandler
 282:.\Generated_Source\PSoC4/BLE_gatt.c **** *******************************************************************************
 283:.\Generated_Source\PSoC4/BLE_gatt.c **** 
 284:.\Generated_Source\PSoC4/BLE_gatt.c **** Summary:
 285:.\Generated_Source\PSoC4/BLE_gatt.c ****  This function is called on receiving a "CYBLE_EVT_GATTC_READ_BY_TYPE_RSP"
 286:.\Generated_Source\PSoC4/BLE_gatt.c ****  event. Based on the service UUID, an appropriate data structure is populated
 287:.\Generated_Source\PSoC4/BLE_gatt.c ****  using the data received as part of the callback.
 288:.\Generated_Source\PSoC4/BLE_gatt.c **** 
 289:.\Generated_Source\PSoC4/BLE_gatt.c **** Parameters:
 290:.\Generated_Source\PSoC4/BLE_gatt.c ****  *discCharInfo: The pointer to a characteristic information structure.
 291:.\Generated_Source\PSoC4/BLE_gatt.c **** 
 292:.\Generated_Source\PSoC4/BLE_gatt.c **** Return:
 293:.\Generated_Source\PSoC4/BLE_gatt.c ****  None
 294:.\Generated_Source\PSoC4/BLE_gatt.c **** 
 295:.\Generated_Source\PSoC4/BLE_gatt.c **** ******************************************************************************/
 296:.\Generated_Source\PSoC4/BLE_gatt.c **** void CyBle_GattcDiscoverCharacteristicsEventHandler(CYBLE_DISC_CHAR_INFO_T *discCharInfo)
 297:.\Generated_Source\PSoC4/BLE_gatt.c **** {
 514              		.loc 1 297 0
 515              		.cfi_startproc
 516 0000 80B5     		push	{r7, lr}
 517              		.cfi_def_cfa_offset 8
 518              		.cfi_offset 7, -8
 519              		.cfi_offset 14, -4
 520 0002 82B0     		sub	sp, sp, #8
 521              		.cfi_def_cfa_offset 16
 522 0004 00AF     		add	r7, sp, #0
 523              		.cfi_def_cfa_register 7
 524 0006 7860     		str	r0, [r7, #4]
 298:.\Generated_Source\PSoC4/BLE_gatt.c ****     if(discCharInfo->uuid.uuid16 == CYBLE_UUID_CHAR_SERVICE_CHANGED)
 525              		.loc 1 298 0
 526 0008 7B68     		ldr	r3, [r7, #4]
 527 000a DA88     		ldrh	r2, [r3, #6]
 528 000c 0D4B     		ldr	r3, .L25
 529 000e 9A42     		cmp	r2, r3
 530 0010 15D1     		bne	.L22
 299:.\Generated_Source\PSoC4/BLE_gatt.c ****     {
 300:.\Generated_Source\PSoC4/BLE_gatt.c ****         CyBle_CheckStoreCharHandle(cyBle_gattc.serviceChanged);
 531              		.loc 1 300 0
 532 0012 0D4B     		ldr	r3, .L25+4
 533 0014 5B88     		ldrh	r3, [r3, #2]
 534 0016 002B     		cmp	r3, #0
 535 0018 08D1     		bne	.L24
 536              		.loc 1 300 0 is_stmt 0 discriminator 1
 537 001a 7B68     		ldr	r3, [r7, #4]
 538 001c 9A88     		ldrh	r2, [r3, #4]
 539 001e 0A4B     		ldr	r3, .L25+4
 540 0020 5A80     		strh	r2, [r3, #2]
 541 0022 7B68     		ldr	r3, [r7, #4]
ARM GAS  C:\Users\MANISH~1\AppData\Local\Temp\ccYMrBx9.s 			page 16


 542 0024 9A78     		ldrb	r2, [r3, #2]
 543 0026 084B     		ldr	r3, .L25+4
 544 0028 1A70     		strb	r2, [r3]
 545 002a 08E0     		b	.L22
 546              	.L24:
 547              		.loc 1 300 0 discriminator 2
 548 002c 074B     		ldr	r3, .L25+8
 549 002e 1B68     		ldr	r3, [r3]
 550 0030 7A68     		ldr	r2, [r7, #4]
 551 0032 0632     		add	r2, r2, #6
 552 0034 8621     		mov	r1, #134
 553 0036 4900     		lsl	r1, r1, #1
 554 0038 081C     		mov	r0, r1
 555 003a 111C     		mov	r1, r2
 556 003c 9847     		blx	r3
 557              	.L22:
 301:.\Generated_Source\PSoC4/BLE_gatt.c ****     }
 302:.\Generated_Source\PSoC4/BLE_gatt.c **** }
 558              		.loc 1 302 0 is_stmt 1
 559 003e BD46     		mov	sp, r7
 560 0040 02B0     		add	sp, sp, #8
 561              		@ sp needed
 562 0042 80BD     		pop	{r7, pc}
 563              	.L26:
 564              		.align	2
 565              	.L25:
 566 0044 052A0000 		.word	10757
 567 0048 00000000 		.word	cyBle_gattc
 568 004c 00000000 		.word	CyBle_ApplCallback
 569              		.cfi_endproc
 570              	.LFE5:
 571              		.size	CyBle_GattcDiscoverCharacteristicsEventHandler, .-CyBle_GattcDiscoverCharacteristicsEventHan
 572              		.section	.text.CyBle_GattcDiscoverCharDescriptorsEventHandler,"ax",%progbits
 573              		.align	2
 574              		.global	CyBle_GattcDiscoverCharDescriptorsEventHandler
 575              		.code	16
 576              		.thumb_func
 577              		.type	CyBle_GattcDiscoverCharDescriptorsEventHandler, %function
 578              	CyBle_GattcDiscoverCharDescriptorsEventHandler:
 579              	.LFB6:
 303:.\Generated_Source\PSoC4/BLE_gatt.c **** 
 304:.\Generated_Source\PSoC4/BLE_gatt.c **** 
 305:.\Generated_Source\PSoC4/BLE_gatt.c **** /******************************************************************************
 306:.\Generated_Source\PSoC4/BLE_gatt.c **** ##Function Name: CyBle_GattcDiscoverCharDescriptorsEventHandler
 307:.\Generated_Source\PSoC4/BLE_gatt.c **** *******************************************************************************
 308:.\Generated_Source\PSoC4/BLE_gatt.c **** 
 309:.\Generated_Source\PSoC4/BLE_gatt.c **** Summary:
 310:.\Generated_Source\PSoC4/BLE_gatt.c ****  This function is called on receiving a "CYBLE_EVT_GATTC_FIND_INFO_RSP" event.
 311:.\Generated_Source\PSoC4/BLE_gatt.c ****  Based on the descriptor UUID, an appropriate data structure is populated 
 312:.\Generated_Source\PSoC4/BLE_gatt.c ****  using the data received as part of the callback.
 313:.\Generated_Source\PSoC4/BLE_gatt.c **** 
 314:.\Generated_Source\PSoC4/BLE_gatt.c **** Parameters:
 315:.\Generated_Source\PSoC4/BLE_gatt.c ****  *discDescrInfo: The pointer to a descriptor information structure.
 316:.\Generated_Source\PSoC4/BLE_gatt.c ****  discoveryService: The index of the service instance
 317:.\Generated_Source\PSoC4/BLE_gatt.c **** 
 318:.\Generated_Source\PSoC4/BLE_gatt.c **** Return:
 319:.\Generated_Source\PSoC4/BLE_gatt.c ****  None
ARM GAS  C:\Users\MANISH~1\AppData\Local\Temp\ccYMrBx9.s 			page 17


 320:.\Generated_Source\PSoC4/BLE_gatt.c **** 
 321:.\Generated_Source\PSoC4/BLE_gatt.c **** ******************************************************************************/
 322:.\Generated_Source\PSoC4/BLE_gatt.c **** void CyBle_GattcDiscoverCharDescriptorsEventHandler(CYBLE_DISC_DESCR_INFO_T *discDescrInfo)
 323:.\Generated_Source\PSoC4/BLE_gatt.c **** {
 580              		.loc 1 323 0
 581              		.cfi_startproc
 582 0000 80B5     		push	{r7, lr}
 583              		.cfi_def_cfa_offset 8
 584              		.cfi_offset 7, -8
 585              		.cfi_offset 14, -4
 586 0002 82B0     		sub	sp, sp, #8
 587              		.cfi_def_cfa_offset 16
 588 0004 00AF     		add	r7, sp, #0
 589              		.cfi_def_cfa_register 7
 590 0006 7860     		str	r0, [r7, #4]
 324:.\Generated_Source\PSoC4/BLE_gatt.c ****     if(discDescrInfo->uuid.uuid16 == CYBLE_UUID_CHAR_CLIENT_CONFIG)
 591              		.loc 1 324 0
 592 0008 7B68     		ldr	r3, [r7, #4]
 593 000a 9A88     		ldrh	r2, [r3, #4]
 594 000c 0B4B     		ldr	r3, .L30
 595 000e 9A42     		cmp	r2, r3
 596 0010 11D1     		bne	.L27
 325:.\Generated_Source\PSoC4/BLE_gatt.c ****     {
 326:.\Generated_Source\PSoC4/BLE_gatt.c ****         CyBle_CheckStoreCharDescrHandle(cyBle_gattc.cccdHandle);
 597              		.loc 1 326 0
 598 0012 0B4B     		ldr	r3, .L30+4
 599 0014 9B88     		ldrh	r3, [r3, #4]
 600 0016 002B     		cmp	r3, #0
 601 0018 04D1     		bne	.L29
 602              		.loc 1 326 0 is_stmt 0 discriminator 1
 603 001a 7B68     		ldr	r3, [r7, #4]
 604 001c 5A88     		ldrh	r2, [r3, #2]
 605 001e 084B     		ldr	r3, .L30+4
 606 0020 9A80     		strh	r2, [r3, #4]
 607 0022 08E0     		b	.L27
 608              	.L29:
 609              		.loc 1 326 0 discriminator 2
 610 0024 074B     		ldr	r3, .L30+8
 611 0026 1B68     		ldr	r3, [r3]
 612 0028 7A68     		ldr	r2, [r7, #4]
 613 002a 0432     		add	r2, r2, #4
 614 002c 8621     		mov	r1, #134
 615 002e 4900     		lsl	r1, r1, #1
 616 0030 081C     		mov	r0, r1
 617 0032 111C     		mov	r1, r2
 618 0034 9847     		blx	r3
 619              	.L27:
 327:.\Generated_Source\PSoC4/BLE_gatt.c ****     }
 328:.\Generated_Source\PSoC4/BLE_gatt.c **** }
 620              		.loc 1 328 0 is_stmt 1
 621 0036 BD46     		mov	sp, r7
 622 0038 02B0     		add	sp, sp, #8
 623              		@ sp needed
 624 003a 80BD     		pop	{r7, pc}
 625              	.L31:
 626              		.align	2
 627              	.L30:
ARM GAS  C:\Users\MANISH~1\AppData\Local\Temp\ccYMrBx9.s 			page 18


 628 003c 02290000 		.word	10498
 629 0040 00000000 		.word	cyBle_gattc
 630 0044 00000000 		.word	CyBle_ApplCallback
 631              		.cfi_endproc
 632              	.LFE6:
 633              		.size	CyBle_GattcDiscoverCharDescriptorsEventHandler, .-CyBle_GattcDiscoverCharDescriptorsEventHan
 634              		.section	.text.CyBle_GattcIndicationEventHandler,"ax",%progbits
 635              		.align	2
 636              		.global	CyBle_GattcIndicationEventHandler
 637              		.code	16
 638              		.thumb_func
 639              		.type	CyBle_GattcIndicationEventHandler, %function
 640              	CyBle_GattcIndicationEventHandler:
 641              	.LFB7:
 329:.\Generated_Source\PSoC4/BLE_gatt.c **** 
 330:.\Generated_Source\PSoC4/BLE_gatt.c **** 
 331:.\Generated_Source\PSoC4/BLE_gatt.c **** /******************************************************************************
 332:.\Generated_Source\PSoC4/BLE_gatt.c **** ##Function Name: CyBle_GattcIndicationEventHandler
 333:.\Generated_Source\PSoC4/BLE_gatt.c **** *******************************************************************************
 334:.\Generated_Source\PSoC4/BLE_gatt.c **** 
 335:.\Generated_Source\PSoC4/BLE_gatt.c **** Summary:
 336:.\Generated_Source\PSoC4/BLE_gatt.c ****  Handles the Indication Event.
 337:.\Generated_Source\PSoC4/BLE_gatt.c **** 
 338:.\Generated_Source\PSoC4/BLE_gatt.c **** Parameters:
 339:.\Generated_Source\PSoC4/BLE_gatt.c ****  *eventParam: The pointer to the data structure specified by the event.
 340:.\Generated_Source\PSoC4/BLE_gatt.c **** 
 341:.\Generated_Source\PSoC4/BLE_gatt.c **** Return:
 342:.\Generated_Source\PSoC4/BLE_gatt.c ****  None.
 343:.\Generated_Source\PSoC4/BLE_gatt.c **** 
 344:.\Generated_Source\PSoC4/BLE_gatt.c **** ******************************************************************************/
 345:.\Generated_Source\PSoC4/BLE_gatt.c **** void CyBle_GattcIndicationEventHandler(CYBLE_GATTC_HANDLE_VALUE_IND_PARAM_T *eventParam)
 346:.\Generated_Source\PSoC4/BLE_gatt.c **** {
 642              		.loc 1 346 0
 643              		.cfi_startproc
 644 0000 80B5     		push	{r7, lr}
 645              		.cfi_def_cfa_offset 8
 646              		.cfi_offset 7, -8
 647              		.cfi_offset 14, -4
 648 0002 82B0     		sub	sp, sp, #8
 649              		.cfi_def_cfa_offset 16
 650 0004 00AF     		add	r7, sp, #0
 651              		.cfi_def_cfa_register 7
 652 0006 7860     		str	r0, [r7, #4]
 347:.\Generated_Source\PSoC4/BLE_gatt.c ****     if(cyBle_gattc.serviceChanged.valueHandle == eventParam->handleValPair.attrHandle)
 653              		.loc 1 347 0
 654 0008 0C4B     		ldr	r3, .L34
 655 000a 5A88     		ldrh	r2, [r3, #2]
 656 000c 7B68     		ldr	r3, [r7, #4]
 657 000e 9B89     		ldrh	r3, [r3, #12]
 658 0010 9A42     		cmp	r2, r3
 659 0012 0FD1     		bne	.L32
 348:.\Generated_Source\PSoC4/BLE_gatt.c ****     {
 349:.\Generated_Source\PSoC4/BLE_gatt.c ****         CyBle_ApplCallback((uint32)CYBLE_EVT_GATTC_INDICATION, eventParam);
 660              		.loc 1 349 0
 661 0014 0A4B     		ldr	r3, .L34+4
 662 0016 1B68     		ldr	r3, [r3]
 663 0018 8322     		mov	r2, #131
ARM GAS  C:\Users\MANISH~1\AppData\Local\Temp\ccYMrBx9.s 			page 19


 664 001a 5100     		lsl	r1, r2, #1
 665 001c 7A68     		ldr	r2, [r7, #4]
 666 001e 081C     		mov	r0, r1
 667 0020 111C     		mov	r1, r2
 668 0022 9847     		blx	r3
 350:.\Generated_Source\PSoC4/BLE_gatt.c ****         cyBle_eventHandlerFlag &= (uint8)~CYBLE_CALLBACK;
 669              		.loc 1 350 0
 670 0024 074B     		ldr	r3, .L34+8
 671 0026 1B78     		ldrb	r3, [r3]
 672 0028 DBB2     		uxtb	r3, r3
 673 002a 0122     		mov	r2, #1
 674 002c 9343     		bic	r3, r2
 675 002e DAB2     		uxtb	r2, r3
 676 0030 044B     		ldr	r3, .L34+8
 677 0032 1A70     		strb	r2, [r3]
 678              	.L32:
 351:.\Generated_Source\PSoC4/BLE_gatt.c ****     }
 352:.\Generated_Source\PSoC4/BLE_gatt.c **** }
 679              		.loc 1 352 0
 680 0034 BD46     		mov	sp, r7
 681 0036 02B0     		add	sp, sp, #8
 682              		@ sp needed
 683 0038 80BD     		pop	{r7, pc}
 684              	.L35:
 685 003a C046     		.align	2
 686              	.L34:
 687 003c 00000000 		.word	cyBle_gattc
 688 0040 00000000 		.word	CyBle_ApplCallback
 689 0044 00000000 		.word	cyBle_eventHandlerFlag
 690              		.cfi_endproc
 691              	.LFE7:
 692              		.size	CyBle_GattcIndicationEventHandler, .-CyBle_GattcIndicationEventHandler
 693              		.text
 694              	.Letext0:
 695              		.file 2 ".\\Generated_Source\\PSoC4\\cytypes.h"
 696              		.file 3 ".\\Generated_Source\\PSoC4\\BLE_Stack.h"
 697              		.file 4 ".\\Generated_Source\\PSoC4\\BLE_StackGatt.h"
 698              		.file 5 ".\\Generated_Source\\PSoC4\\BLE_StackGattServer.h"
 699              		.file 6 ".\\Generated_Source\\PSoC4\\BLE_StackGattClient.h"
 700              		.file 7 ".\\Generated_Source\\PSoC4\\BLE_StackGattDb.h"
 701              		.file 8 ".\\Generated_Source\\PSoC4\\BLE.h"
 702              		.file 9 ".\\Generated_Source\\PSoC4\\BLE_gatt.h"
 703              		.file 10 ".\\Generated_Source\\PSoC4\\BLE_dis.h"
 704              		.file 11 ".\\Generated_Source\\PSoC4\\BLE_eventHandler.h"