ARM GAS  C:\Users\MANISH~1\AppData\Local\Temp\cc5Q4pi1.s 			page 1


   1              		.cpu cortex-m0
   2              		.fpu softvfp
   3              		.eabi_attribute 20, 1
   4              		.eabi_attribute 21, 1
   5              		.eabi_attribute 23, 3
   6              		.eabi_attribute 24, 1
   7              		.eabi_attribute 25, 1
   8              		.eabi_attribute 26, 1
   9              		.eabi_attribute 30, 6
  10              		.eabi_attribute 34, 0
  11              		.eabi_attribute 18, 4
  12              		.code	16
  13              		.file	"DIS.c"
  14              		.text
  15              	.Ltext0:
  16              		.cfi_sections	.debug_frame
  17              		.section	.rodata
  18              		.align	2
  19              	.LC0:
  20 0000 0D00     		.ascii	"\015\000"
  21 0002 0000     		.align	2
  22              	.LC2:
  23 0004 4359424C 		.ascii	"CYBLE_EVT_GATTC_ERROR_RSP:\015\000"
  23      455F4556 
  23      545F4741 
  23      5454435F 
  23      4552524F 
  24              		.align	2
  25              	.LC4:
  26 0020 47415454 		.ascii	"GATT PDU:%x\015\012\000"
  26      20504455 
  26      3A25780D 
  26      0A00
  27 002e 0000     		.align	2
  28              	.LC6:
  29 0030 4552525F 		.ascii	"ERR_CODE_T:%x\015\012\000"
  29      434F4445 
  29      5F543A25 
  29      780D0A00 
  30              		.section	.text.DisEventHandler,"ax",%progbits
  31              		.align	2
  32              		.global	DisEventHandler
  33              		.code	16
  34              		.thumb_func
  35              		.type	DisEventHandler, %function
  36              	DisEventHandler:
  37              	.LFB35:
  38              		.file 1 ".\\DIS.c"
   1:.\DIS.c       **** /* ========================================
   2:.\DIS.c       ****  *
   3:.\DIS.c       ****  * Copyright YOUR COMPANY, THE YEAR
   4:.\DIS.c       ****  * All Rights Reserved
   5:.\DIS.c       ****  * UNPUBLISHED, LICENSED SOFTWARE.
   6:.\DIS.c       ****  *
   7:.\DIS.c       ****  * CONFIDENTIAL AND PROPRIETARY INFORMATION
   8:.\DIS.c       ****  * WHICH IS THE PROPERTY OF your company.
   9:.\DIS.c       ****  *
ARM GAS  C:\Users\MANISH~1\AppData\Local\Temp\cc5Q4pi1.s 			page 2


  10:.\DIS.c       ****  * ========================================
  11:.\DIS.c       **** */
  12:.\DIS.c       **** 
  13:.\DIS.c       **** #include <project.h>
  14:.\DIS.c       **** #include <common.h>
  15:.\DIS.c       **** #include  "stdio.h"
  16:.\DIS.c       **** 
  17:.\DIS.c       **** /*******************************************************************************
  18:.\DIS.c       **** * Function Name: DisEventHandler
  19:.\DIS.c       **** ********************************************************************************
  20:.\DIS.c       **** *
  21:.\DIS.c       **** * Summary:
  22:.\DIS.c       **** *  This is an event callback function to receive events from the BLE Component,
  23:.\DIS.c       **** *  which are specific to Di Service.
  24:.\DIS.c       **** *
  25:.\DIS.c       **** * Parameters:
  26:.\DIS.c       **** *  uint8 event:       Write Command event from the CYBLE component.
  27:.\DIS.c       **** *  void* eventParams: A structure instance of CYBLE_GATT_HANDLE_VALUE_PAIR_T
  28:.\DIS.c       **** *                     type.
  29:.\DIS.c       **** *
  30:.\DIS.c       **** * Return:
  31:.\DIS.c       **** *  None
  32:.\DIS.c       **** *
  33:.\DIS.c       **** *******************************************************************************/
  34:.\DIS.c       **** void DisEventHandler(uint32 event,void * eventParam)
  35:.\DIS.c       **** {
  39              		.loc 1 35 0
  40              		.cfi_startproc
  41 0000 80B5     		push	{r7, lr}
  42              		.cfi_def_cfa_offset 8
  43              		.cfi_offset 7, -8
  44              		.cfi_offset 14, -4
  45 0002 88B0     		sub	sp, sp, #32
  46              		.cfi_def_cfa_offset 40
  47 0004 00AF     		add	r7, sp, #0
  48              		.cfi_def_cfa_register 7
  49 0006 7860     		str	r0, [r7, #4]
  50 0008 3960     		str	r1, [r7]
  36:.\DIS.c       ****     CYBLE_DIS_CHAR_VALUE_T                disCharValue;
  37:.\DIS.c       ****     CYBLE_GATTC_ERR_RSP_PARAM_T           ErrResponse;
  38:.\DIS.c       ****     uint8 i;
  39:.\DIS.c       ****     switch(event)
  51              		.loc 1 39 0
  52 000a 7B68     		ldr	r3, [r7, #4]
  53 000c 402B     		cmp	r3, #64
  54 000e 2FD0     		beq	.L3
  55 0010 5822     		mov	r2, #88
  56 0012 FF32     		add	r2, r2, #255
  57 0014 9342     		cmp	r3, r2
  58 0016 4BD1     		bne	.L1
  40:.\DIS.c       ****     {
  41:.\DIS.c       ****         case CYBLE_EVT_DISC_READ_CHAR_RESPONSE:
  42:.\DIS.c       ****                 disCharValue=*(CYBLE_DIS_CHAR_VALUE_T*) eventParam;                
  59              		.loc 1 42 0
  60 0018 3B1C     		mov	r3, r7
  61 001a 1433     		add	r3, r3, #20
  62 001c 3A68     		ldr	r2, [r7]
ARM GAS  C:\Users\MANISH~1\AppData\Local\Temp\cc5Q4pi1.s 			page 3


  63 001e 03CA     		ldmia	r2!, {r0, r1}
  64 0020 03C3     		stmia	r3!, {r0, r1}
  43:.\DIS.c       ****                 for(i=0;i<disCharValue.value->len;i++)
  65              		.loc 1 43 0
  66 0022 3B1C     		mov	r3, r7
  67 0024 1F33     		add	r3, r3, #31
  68 0026 0022     		mov	r2, #0
  69 0028 1A70     		strb	r2, [r3]
  70 002a 12E0     		b	.L5
  71              	.L6:
  44:.\DIS.c       ****                 {
  45:.\DIS.c       ****                     printf("%c",disCharValue.value->val[i]);  
  72              		.loc 1 45 0 discriminator 2
  73 002c 3B1C     		mov	r3, r7
  74 002e 1433     		add	r3, r3, #20
  75 0030 5B68     		ldr	r3, [r3, #4]
  76 0032 1A68     		ldr	r2, [r3]
  77 0034 3B1C     		mov	r3, r7
  78 0036 1F33     		add	r3, r3, #31
  79 0038 1B78     		ldrb	r3, [r3]
  80 003a D318     		add	r3, r2, r3
  81 003c 1B78     		ldrb	r3, [r3]
  82 003e 181C     		mov	r0, r3
  83 0040 FFF7FEFF 		bl	putchar
  43:.\DIS.c       ****                 for(i=0;i<disCharValue.value->len;i++)
  84              		.loc 1 43 0 discriminator 2
  85 0044 3B1C     		mov	r3, r7
  86 0046 1F33     		add	r3, r3, #31
  87 0048 1A78     		ldrb	r2, [r3]
  88 004a 3B1C     		mov	r3, r7
  89 004c 1F33     		add	r3, r3, #31
  90 004e 0132     		add	r2, r2, #1
  91 0050 1A70     		strb	r2, [r3]
  92              	.L5:
  43:.\DIS.c       ****                 for(i=0;i<disCharValue.value->len;i++)
  93              		.loc 1 43 0 is_stmt 0 discriminator 1
  94 0052 3B1C     		mov	r3, r7
  95 0054 1F33     		add	r3, r3, #31
  96 0056 1B78     		ldrb	r3, [r3]
  97 0058 9AB2     		uxth	r2, r3
  98 005a 3B1C     		mov	r3, r7
  99 005c 1433     		add	r3, r3, #20
 100 005e 5B68     		ldr	r3, [r3, #4]
 101 0060 9B88     		ldrh	r3, [r3, #4]
 102 0062 9A42     		cmp	r2, r3
 103 0064 E2D3     		bcc	.L6
  46:.\DIS.c       ****                 }
  47:.\DIS.c       ****                 printf("\r\n");
 104              		.loc 1 47 0 is_stmt 1
 105 0066 144B     		ldr	r3, .L7
 106 0068 181C     		mov	r0, r3
 107 006a FFF7FEFF 		bl	puts
  48:.\DIS.c       ****             break;
 108              		.loc 1 48 0
 109 006e 1FE0     		b	.L1
 110              	.L3:
  49:.\DIS.c       ****         case CYBLE_EVT_GATTC_ERROR_RSP:
ARM GAS  C:\Users\MANISH~1\AppData\Local\Temp\cc5Q4pi1.s 			page 4


  50:.\DIS.c       ****                 ErrResponse=*(CYBLE_GATTC_ERR_RSP_PARAM_T*) eventParam;
 111              		.loc 1 50 0
 112 0070 3A1C     		mov	r2, r7
 113 0072 0C32     		add	r2, r2, #12
 114 0074 3B68     		ldr	r3, [r7]
 115 0076 111C     		mov	r1, r2
 116 0078 1A1C     		mov	r2, r3
 117 007a 0823     		mov	r3, #8
 118 007c 081C     		mov	r0, r1
 119 007e 111C     		mov	r1, r2
 120 0080 1A1C     		mov	r2, r3
 121 0082 FFF7FEFF 		bl	memcpy
  51:.\DIS.c       ****                 printf("CYBLE_EVT_GATTC_ERROR_RSP:\r\n");
 122              		.loc 1 51 0
 123 0086 0D4B     		ldr	r3, .L7+4
 124 0088 181C     		mov	r0, r3
 125 008a FFF7FEFF 		bl	puts
  52:.\DIS.c       ****                 printf("GATT PDU:%x\r\n",ErrResponse.opCode);
 126              		.loc 1 52 0
 127 008e 3B1C     		mov	r3, r7
 128 0090 0C33     		add	r3, r3, #12
 129 0092 9B78     		ldrb	r3, [r3, #2]
 130 0094 0A4A     		ldr	r2, .L7+8
 131 0096 101C     		mov	r0, r2
 132 0098 191C     		mov	r1, r3
 133 009a FFF7FEFF 		bl	printf
  53:.\DIS.c       ****                 printf("ERR_CODE_T:%x\r\n",ErrResponse.errorCode);
 134              		.loc 1 53 0
 135 009e 3B1C     		mov	r3, r7
 136 00a0 0C33     		add	r3, r3, #12
 137 00a2 9B79     		ldrb	r3, [r3, #6]
 138 00a4 074A     		ldr	r2, .L7+12
 139 00a6 101C     		mov	r0, r2
 140 00a8 191C     		mov	r1, r3
 141 00aa FFF7FEFF 		bl	printf
  54:.\DIS.c       ****             break;
 142              		.loc 1 54 0
 143 00ae C046     		mov	r8, r8
 144              	.L1:
  55:.\DIS.c       ****     }
  56:.\DIS.c       **** }
 145              		.loc 1 56 0
 146 00b0 BD46     		mov	sp, r7
 147 00b2 08B0     		add	sp, sp, #32
 148              		@ sp needed
 149 00b4 80BD     		pop	{r7, pc}
 150              	.L8:
 151 00b6 C046     		.align	2
 152              	.L7:
 153 00b8 00000000 		.word	.LC0
 154 00bc 04000000 		.word	.LC2
 155 00c0 20000000 		.word	.LC4
 156 00c4 30000000 		.word	.LC6
 157              		.cfi_endproc
 158              	.LFE35:
 159              		.size	DisEventHandler, .-DisEventHandler
 160              		.text
ARM GAS  C:\Users\MANISH~1\AppData\Local\Temp\cc5Q4pi1.s 			page 5


 161              	.Letext0:
 162              		.file 2 ".\\Generated_Source\\PSoC4/cytypes.h"
 163              		.file 3 ".\\Generated_Source\\PSoC4/BLE_Stack.h"
 164              		.file 4 ".\\Generated_Source\\PSoC4/BLE_StackGatt.h"
 165              		.file 5 ".\\Generated_Source\\PSoC4/BLE_StackGattClient.h"
 166              		.file 6 ".\\Generated_Source\\PSoC4/BLE_dis.h"
 167              		.file 7 ".\\Generated_Source\\PSoC4/BLE_eventHandler.h"